ARM GAS  C:\Users\z004c8dn\AppData\Local\Temp\cctviM4R.s 			page 1


   1              		.syntax unified
   2              		.cpu cortex-m3
   3              		.fpu softvfp
   4              		.eabi_attribute 20, 1
   5              		.eabi_attribute 21, 1
   6              		.eabi_attribute 23, 3
   7              		.eabi_attribute 24, 1
   8              		.eabi_attribute 25, 1
   9              		.eabi_attribute 26, 1
  10              		.eabi_attribute 30, 6
  11              		.eabi_attribute 34, 1
  12              		.eabi_attribute 18, 4
  13              		.thumb
  14              		.syntax unified
  15              		.file	"isr_eoc_getValue.c"
  16              		.text
  17              	.Ltext0:
  18              		.cfi_sections	.debug_frame
  19              		.section	.text.isr_eoc_getValue_Start,"ax",%progbits
  20              		.align	2
  21              		.global	isr_eoc_getValue_Start
  22              		.thumb
  23              		.thumb_func
  24              		.type	isr_eoc_getValue_Start, %function
  25              	isr_eoc_getValue_Start:
  26              	.LFB63:
  27              		.file 1 "Generated_Source\\PSoC5\\isr_eoc_getValue.c"
   1:Generated_Source\PSoC5/isr_eoc_getValue.c **** /*******************************************************************************
   2:Generated_Source\PSoC5/isr_eoc_getValue.c **** * File Name: isr_eoc_getValue.c  
   3:Generated_Source\PSoC5/isr_eoc_getValue.c **** * Version 1.70
   4:Generated_Source\PSoC5/isr_eoc_getValue.c **** *
   5:Generated_Source\PSoC5/isr_eoc_getValue.c **** *  Description:
   6:Generated_Source\PSoC5/isr_eoc_getValue.c **** *   API for controlling the state of an interrupt.
   7:Generated_Source\PSoC5/isr_eoc_getValue.c **** *
   8:Generated_Source\PSoC5/isr_eoc_getValue.c **** *
   9:Generated_Source\PSoC5/isr_eoc_getValue.c **** * Note:
  10:Generated_Source\PSoC5/isr_eoc_getValue.c **** * EDITED BY: Andreas BOTH
  11:Generated_Source\PSoC5/isr_eoc_getValue.c **** * DATE: 2024-04-18
  12:Generated_Source\PSoC5/isr_eoc_getValue.c **** * COURSE ID:tx00db04
  13:Generated_Source\PSoC5/isr_eoc_getValue.c **** * DESCRIPTION:  Sums up the internal ADC results
  14:Generated_Source\PSoC5/isr_eoc_getValue.c **** ********************************************************************************
  15:Generated_Source\PSoC5/isr_eoc_getValue.c **** * Copyright 2008-2015, Cypress Semiconductor Corporation.  All rights reserved.
  16:Generated_Source\PSoC5/isr_eoc_getValue.c **** * You may use this file only in accordance with the license, terms, conditions, 
  17:Generated_Source\PSoC5/isr_eoc_getValue.c **** * disclaimers, and limitations in the end user license agreement accompanying 
  18:Generated_Source\PSoC5/isr_eoc_getValue.c **** * the software package with which this file was provided.
  19:Generated_Source\PSoC5/isr_eoc_getValue.c **** *******************************************************************************/
  20:Generated_Source\PSoC5/isr_eoc_getValue.c **** 
  21:Generated_Source\PSoC5/isr_eoc_getValue.c **** 
  22:Generated_Source\PSoC5/isr_eoc_getValue.c **** #include <cydevice_trm.h>
  23:Generated_Source\PSoC5/isr_eoc_getValue.c **** #include <CyLib.h>
  24:Generated_Source\PSoC5/isr_eoc_getValue.c **** #include <isr_eoc_getValue.h>
  25:Generated_Source\PSoC5/isr_eoc_getValue.c **** #include "cyapicallbacks.h"
  26:Generated_Source\PSoC5/isr_eoc_getValue.c **** 
  27:Generated_Source\PSoC5/isr_eoc_getValue.c **** #if !defined(isr_eoc_getValue__REMOVED) /* Check for removal by optimization */
  28:Generated_Source\PSoC5/isr_eoc_getValue.c **** 
  29:Generated_Source\PSoC5/isr_eoc_getValue.c **** /*******************************************************************************
  30:Generated_Source\PSoC5/isr_eoc_getValue.c **** *  Place your includes, defines and code here 
ARM GAS  C:\Users\z004c8dn\AppData\Local\Temp\cctviM4R.s 			page 2


  31:Generated_Source\PSoC5/isr_eoc_getValue.c **** ********************************************************************************/
  32:Generated_Source\PSoC5/isr_eoc_getValue.c **** /* `#START isr_eoc_getValue_intc` */
  33:Generated_Source\PSoC5/isr_eoc_getValue.c ****     #include "project.h"
  34:Generated_Source\PSoC5/isr_eoc_getValue.c ****     
  35:Generated_Source\PSoC5/isr_eoc_getValue.c ****     
  36:Generated_Source\PSoC5/isr_eoc_getValue.c ****     extern volatile uint64 gInputSum;
  37:Generated_Source\PSoC5/isr_eoc_getValue.c ****     
  38:Generated_Source\PSoC5/isr_eoc_getValue.c **** /* `#END` */
  39:Generated_Source\PSoC5/isr_eoc_getValue.c **** 
  40:Generated_Source\PSoC5/isr_eoc_getValue.c **** #ifndef CYINT_IRQ_BASE
  41:Generated_Source\PSoC5/isr_eoc_getValue.c **** #define CYINT_IRQ_BASE      16
  42:Generated_Source\PSoC5/isr_eoc_getValue.c **** #endif /* CYINT_IRQ_BASE */
  43:Generated_Source\PSoC5/isr_eoc_getValue.c **** #ifndef CYINT_VECT_TABLE
  44:Generated_Source\PSoC5/isr_eoc_getValue.c **** #define CYINT_VECT_TABLE    ((cyisraddress **) CYREG_NVIC_VECT_OFFSET)
  45:Generated_Source\PSoC5/isr_eoc_getValue.c **** #endif /* CYINT_VECT_TABLE */
  46:Generated_Source\PSoC5/isr_eoc_getValue.c **** 
  47:Generated_Source\PSoC5/isr_eoc_getValue.c **** /* Declared in startup, used to set unused interrupts to. */
  48:Generated_Source\PSoC5/isr_eoc_getValue.c **** CY_ISR_PROTO(IntDefaultHandler);
  49:Generated_Source\PSoC5/isr_eoc_getValue.c **** 
  50:Generated_Source\PSoC5/isr_eoc_getValue.c **** 
  51:Generated_Source\PSoC5/isr_eoc_getValue.c **** /*******************************************************************************
  52:Generated_Source\PSoC5/isr_eoc_getValue.c **** * Function Name: isr_eoc_getValue_Start
  53:Generated_Source\PSoC5/isr_eoc_getValue.c **** ********************************************************************************
  54:Generated_Source\PSoC5/isr_eoc_getValue.c **** *
  55:Generated_Source\PSoC5/isr_eoc_getValue.c **** * Summary:
  56:Generated_Source\PSoC5/isr_eoc_getValue.c **** *  Set up the interrupt and enable it. This function disables the interrupt, 
  57:Generated_Source\PSoC5/isr_eoc_getValue.c **** *  sets the default interrupt vector, sets the priority from the value in the
  58:Generated_Source\PSoC5/isr_eoc_getValue.c **** *  Design Wide Resources Interrupt Editor, then enables the interrupt to the 
  59:Generated_Source\PSoC5/isr_eoc_getValue.c **** *  interrupt controller.
  60:Generated_Source\PSoC5/isr_eoc_getValue.c **** *
  61:Generated_Source\PSoC5/isr_eoc_getValue.c **** * Parameters:  
  62:Generated_Source\PSoC5/isr_eoc_getValue.c **** *   None
  63:Generated_Source\PSoC5/isr_eoc_getValue.c **** *
  64:Generated_Source\PSoC5/isr_eoc_getValue.c **** * Return:
  65:Generated_Source\PSoC5/isr_eoc_getValue.c **** *   None
  66:Generated_Source\PSoC5/isr_eoc_getValue.c **** *
  67:Generated_Source\PSoC5/isr_eoc_getValue.c **** *******************************************************************************/
  68:Generated_Source\PSoC5/isr_eoc_getValue.c **** void isr_eoc_getValue_Start(void)
  69:Generated_Source\PSoC5/isr_eoc_getValue.c **** {
  28              		.loc 1 69 0
  29              		.cfi_startproc
  30              		@ args = 0, pretend = 0, frame = 0
  31              		@ frame_needed = 1, uses_anonymous_args = 0
  32 0000 80B5     		push	{r7, lr}
  33              		.cfi_def_cfa_offset 8
  34              		.cfi_offset 7, -8
  35              		.cfi_offset 14, -4
  36 0002 00AF     		add	r7, sp, #0
  37              		.cfi_def_cfa_register 7
  70:Generated_Source\PSoC5/isr_eoc_getValue.c ****     /* For all we know the interrupt is active. */
  71:Generated_Source\PSoC5/isr_eoc_getValue.c ****     isr_eoc_getValue_Disable();
  38              		.loc 1 71 0
  39 0004 FFF7FEFF 		bl	isr_eoc_getValue_Disable
  72:Generated_Source\PSoC5/isr_eoc_getValue.c **** 
  73:Generated_Source\PSoC5/isr_eoc_getValue.c ****     /* Set the ISR to point to the isr_eoc_getValue Interrupt. */
  74:Generated_Source\PSoC5/isr_eoc_getValue.c ****     isr_eoc_getValue_SetVector(&isr_eoc_getValue_Interrupt);
  40              		.loc 1 74 0
ARM GAS  C:\Users\z004c8dn\AppData\Local\Temp\cctviM4R.s 			page 3


  41 0008 0448     		ldr	r0, .L2
  42 000a FFF7FEFF 		bl	isr_eoc_getValue_SetVector
  75:Generated_Source\PSoC5/isr_eoc_getValue.c **** 
  76:Generated_Source\PSoC5/isr_eoc_getValue.c ****     /* Set the priority. */
  77:Generated_Source\PSoC5/isr_eoc_getValue.c ****     isr_eoc_getValue_SetPriority((uint8)isr_eoc_getValue_INTC_PRIOR_NUMBER);
  43              		.loc 1 77 0
  44 000e 0720     		movs	r0, #7
  45 0010 FFF7FEFF 		bl	isr_eoc_getValue_SetPriority
  78:Generated_Source\PSoC5/isr_eoc_getValue.c **** 
  79:Generated_Source\PSoC5/isr_eoc_getValue.c ****     /* Enable it. */
  80:Generated_Source\PSoC5/isr_eoc_getValue.c ****     isr_eoc_getValue_Enable();
  46              		.loc 1 80 0
  47 0014 FFF7FEFF 		bl	isr_eoc_getValue_Enable
  81:Generated_Source\PSoC5/isr_eoc_getValue.c **** }
  48              		.loc 1 81 0
  49 0018 00BF     		nop
  50 001a 80BD     		pop	{r7, pc}
  51              	.L3:
  52              		.align	2
  53              	.L2:
  54 001c 00000000 		.word	isr_eoc_getValue_Interrupt
  55              		.cfi_endproc
  56              	.LFE63:
  57              		.size	isr_eoc_getValue_Start, .-isr_eoc_getValue_Start
  58              		.section	.text.isr_eoc_getValue_StartEx,"ax",%progbits
  59              		.align	2
  60              		.global	isr_eoc_getValue_StartEx
  61              		.thumb
  62              		.thumb_func
  63              		.type	isr_eoc_getValue_StartEx, %function
  64              	isr_eoc_getValue_StartEx:
  65              	.LFB64:
  82:Generated_Source\PSoC5/isr_eoc_getValue.c **** 
  83:Generated_Source\PSoC5/isr_eoc_getValue.c **** 
  84:Generated_Source\PSoC5/isr_eoc_getValue.c **** /*******************************************************************************
  85:Generated_Source\PSoC5/isr_eoc_getValue.c **** * Function Name: isr_eoc_getValue_StartEx
  86:Generated_Source\PSoC5/isr_eoc_getValue.c **** ********************************************************************************
  87:Generated_Source\PSoC5/isr_eoc_getValue.c **** *
  88:Generated_Source\PSoC5/isr_eoc_getValue.c **** * Summary:
  89:Generated_Source\PSoC5/isr_eoc_getValue.c **** *  Sets up the interrupt and enables it. This function disables the interrupt,
  90:Generated_Source\PSoC5/isr_eoc_getValue.c **** *  sets the interrupt vector based on the address passed in, sets the priority 
  91:Generated_Source\PSoC5/isr_eoc_getValue.c **** *  from the value in the Design Wide Resources Interrupt Editor, then enables 
  92:Generated_Source\PSoC5/isr_eoc_getValue.c **** *  the interrupt to the interrupt controller.
  93:Generated_Source\PSoC5/isr_eoc_getValue.c **** *  
  94:Generated_Source\PSoC5/isr_eoc_getValue.c **** *  When defining ISR functions, the CY_ISR and CY_ISR_PROTO macros should be 
  95:Generated_Source\PSoC5/isr_eoc_getValue.c **** *  used to provide consistent definition across compilers:
  96:Generated_Source\PSoC5/isr_eoc_getValue.c **** *  
  97:Generated_Source\PSoC5/isr_eoc_getValue.c **** *  Function definition example:
  98:Generated_Source\PSoC5/isr_eoc_getValue.c **** *   CY_ISR(MyISR)
  99:Generated_Source\PSoC5/isr_eoc_getValue.c **** *   {
 100:Generated_Source\PSoC5/isr_eoc_getValue.c **** *   }
 101:Generated_Source\PSoC5/isr_eoc_getValue.c **** *   Function prototype example:
 102:Generated_Source\PSoC5/isr_eoc_getValue.c **** *   CY_ISR_PROTO(MyISR);
 103:Generated_Source\PSoC5/isr_eoc_getValue.c **** *
 104:Generated_Source\PSoC5/isr_eoc_getValue.c **** * Parameters:  
 105:Generated_Source\PSoC5/isr_eoc_getValue.c **** *   address: Address of the ISR to set in the interrupt vector table.
 106:Generated_Source\PSoC5/isr_eoc_getValue.c **** *
ARM GAS  C:\Users\z004c8dn\AppData\Local\Temp\cctviM4R.s 			page 4


 107:Generated_Source\PSoC5/isr_eoc_getValue.c **** * Return:
 108:Generated_Source\PSoC5/isr_eoc_getValue.c **** *   None
 109:Generated_Source\PSoC5/isr_eoc_getValue.c **** *
 110:Generated_Source\PSoC5/isr_eoc_getValue.c **** *******************************************************************************/
 111:Generated_Source\PSoC5/isr_eoc_getValue.c **** void isr_eoc_getValue_StartEx(cyisraddress address)
 112:Generated_Source\PSoC5/isr_eoc_getValue.c **** {
  66              		.loc 1 112 0
  67              		.cfi_startproc
  68              		@ args = 0, pretend = 0, frame = 8
  69              		@ frame_needed = 1, uses_anonymous_args = 0
  70 0000 80B5     		push	{r7, lr}
  71              		.cfi_def_cfa_offset 8
  72              		.cfi_offset 7, -8
  73              		.cfi_offset 14, -4
  74 0002 82B0     		sub	sp, sp, #8
  75              		.cfi_def_cfa_offset 16
  76 0004 00AF     		add	r7, sp, #0
  77              		.cfi_def_cfa_register 7
  78 0006 7860     		str	r0, [r7, #4]
 113:Generated_Source\PSoC5/isr_eoc_getValue.c ****     /* For all we know the interrupt is active. */
 114:Generated_Source\PSoC5/isr_eoc_getValue.c ****     isr_eoc_getValue_Disable();
  79              		.loc 1 114 0
  80 0008 FFF7FEFF 		bl	isr_eoc_getValue_Disable
 115:Generated_Source\PSoC5/isr_eoc_getValue.c **** 
 116:Generated_Source\PSoC5/isr_eoc_getValue.c ****     /* Set the ISR to point to the isr_eoc_getValue Interrupt. */
 117:Generated_Source\PSoC5/isr_eoc_getValue.c ****     isr_eoc_getValue_SetVector(address);
  81              		.loc 1 117 0
  82 000c 7868     		ldr	r0, [r7, #4]
  83 000e FFF7FEFF 		bl	isr_eoc_getValue_SetVector
 118:Generated_Source\PSoC5/isr_eoc_getValue.c **** 
 119:Generated_Source\PSoC5/isr_eoc_getValue.c ****     /* Set the priority. */
 120:Generated_Source\PSoC5/isr_eoc_getValue.c ****     isr_eoc_getValue_SetPriority((uint8)isr_eoc_getValue_INTC_PRIOR_NUMBER);
  84              		.loc 1 120 0
  85 0012 0720     		movs	r0, #7
  86 0014 FFF7FEFF 		bl	isr_eoc_getValue_SetPriority
 121:Generated_Source\PSoC5/isr_eoc_getValue.c **** 
 122:Generated_Source\PSoC5/isr_eoc_getValue.c ****     /* Enable it. */
 123:Generated_Source\PSoC5/isr_eoc_getValue.c ****     isr_eoc_getValue_Enable();
  87              		.loc 1 123 0
  88 0018 FFF7FEFF 		bl	isr_eoc_getValue_Enable
 124:Generated_Source\PSoC5/isr_eoc_getValue.c **** }
  89              		.loc 1 124 0
  90 001c 00BF     		nop
  91 001e 0837     		adds	r7, r7, #8
  92              		.cfi_def_cfa_offset 8
  93 0020 BD46     		mov	sp, r7
  94              		.cfi_def_cfa_register 13
  95              		@ sp needed
  96 0022 80BD     		pop	{r7, pc}
  97              		.cfi_endproc
  98              	.LFE64:
  99              		.size	isr_eoc_getValue_StartEx, .-isr_eoc_getValue_StartEx
 100              		.section	.text.isr_eoc_getValue_Stop,"ax",%progbits
 101              		.align	2
 102              		.global	isr_eoc_getValue_Stop
 103              		.thumb
 104              		.thumb_func
ARM GAS  C:\Users\z004c8dn\AppData\Local\Temp\cctviM4R.s 			page 5


 105              		.type	isr_eoc_getValue_Stop, %function
 106              	isr_eoc_getValue_Stop:
 107              	.LFB65:
 125:Generated_Source\PSoC5/isr_eoc_getValue.c **** 
 126:Generated_Source\PSoC5/isr_eoc_getValue.c **** 
 127:Generated_Source\PSoC5/isr_eoc_getValue.c **** /*******************************************************************************
 128:Generated_Source\PSoC5/isr_eoc_getValue.c **** * Function Name: isr_eoc_getValue_Stop
 129:Generated_Source\PSoC5/isr_eoc_getValue.c **** ********************************************************************************
 130:Generated_Source\PSoC5/isr_eoc_getValue.c **** *
 131:Generated_Source\PSoC5/isr_eoc_getValue.c **** * Summary:
 132:Generated_Source\PSoC5/isr_eoc_getValue.c **** *   Disables and removes the interrupt.
 133:Generated_Source\PSoC5/isr_eoc_getValue.c **** *
 134:Generated_Source\PSoC5/isr_eoc_getValue.c **** * Parameters:  
 135:Generated_Source\PSoC5/isr_eoc_getValue.c **** *   None
 136:Generated_Source\PSoC5/isr_eoc_getValue.c **** *
 137:Generated_Source\PSoC5/isr_eoc_getValue.c **** * Return:
 138:Generated_Source\PSoC5/isr_eoc_getValue.c **** *   None
 139:Generated_Source\PSoC5/isr_eoc_getValue.c **** *
 140:Generated_Source\PSoC5/isr_eoc_getValue.c **** *******************************************************************************/
 141:Generated_Source\PSoC5/isr_eoc_getValue.c **** void isr_eoc_getValue_Stop(void)
 142:Generated_Source\PSoC5/isr_eoc_getValue.c **** {
 108              		.loc 1 142 0
 109              		.cfi_startproc
 110              		@ args = 0, pretend = 0, frame = 0
 111              		@ frame_needed = 1, uses_anonymous_args = 0
 112 0000 80B5     		push	{r7, lr}
 113              		.cfi_def_cfa_offset 8
 114              		.cfi_offset 7, -8
 115              		.cfi_offset 14, -4
 116 0002 00AF     		add	r7, sp, #0
 117              		.cfi_def_cfa_register 7
 143:Generated_Source\PSoC5/isr_eoc_getValue.c ****     /* Disable this interrupt. */
 144:Generated_Source\PSoC5/isr_eoc_getValue.c ****     isr_eoc_getValue_Disable();
 118              		.loc 1 144 0
 119 0004 FFF7FEFF 		bl	isr_eoc_getValue_Disable
 145:Generated_Source\PSoC5/isr_eoc_getValue.c **** 
 146:Generated_Source\PSoC5/isr_eoc_getValue.c ****     /* Set the ISR to point to the passive one. */
 147:Generated_Source\PSoC5/isr_eoc_getValue.c ****     isr_eoc_getValue_SetVector(&IntDefaultHandler);
 120              		.loc 1 147 0
 121 0008 0248     		ldr	r0, .L6
 122 000a FFF7FEFF 		bl	isr_eoc_getValue_SetVector
 148:Generated_Source\PSoC5/isr_eoc_getValue.c **** }
 123              		.loc 1 148 0
 124 000e 00BF     		nop
 125 0010 80BD     		pop	{r7, pc}
 126              	.L7:
 127 0012 00BF     		.align	2
 128              	.L6:
 129 0014 00000000 		.word	IntDefaultHandler
 130              		.cfi_endproc
 131              	.LFE65:
 132              		.size	isr_eoc_getValue_Stop, .-isr_eoc_getValue_Stop
 133              		.section	.text.isr_eoc_getValue_Interrupt,"ax",%progbits
 134              		.align	2
 135              		.global	isr_eoc_getValue_Interrupt
 136              		.thumb
 137              		.thumb_func
ARM GAS  C:\Users\z004c8dn\AppData\Local\Temp\cctviM4R.s 			page 6


 138              		.type	isr_eoc_getValue_Interrupt, %function
 139              	isr_eoc_getValue_Interrupt:
 140              	.LFB66:
 149:Generated_Source\PSoC5/isr_eoc_getValue.c **** 
 150:Generated_Source\PSoC5/isr_eoc_getValue.c **** 
 151:Generated_Source\PSoC5/isr_eoc_getValue.c **** /*******************************************************************************
 152:Generated_Source\PSoC5/isr_eoc_getValue.c **** * Function Name: isr_eoc_getValue_Interrupt
 153:Generated_Source\PSoC5/isr_eoc_getValue.c **** ********************************************************************************
 154:Generated_Source\PSoC5/isr_eoc_getValue.c **** *
 155:Generated_Source\PSoC5/isr_eoc_getValue.c **** * Summary:
 156:Generated_Source\PSoC5/isr_eoc_getValue.c **** *   The default Interrupt Service Routine for isr_eoc_getValue.
 157:Generated_Source\PSoC5/isr_eoc_getValue.c **** *
 158:Generated_Source\PSoC5/isr_eoc_getValue.c **** *   Add custom code between the coments to keep the next version of this file
 159:Generated_Source\PSoC5/isr_eoc_getValue.c **** *   from over writting your code.
 160:Generated_Source\PSoC5/isr_eoc_getValue.c **** *
 161:Generated_Source\PSoC5/isr_eoc_getValue.c **** * Parameters:  
 162:Generated_Source\PSoC5/isr_eoc_getValue.c **** *
 163:Generated_Source\PSoC5/isr_eoc_getValue.c **** * Return:
 164:Generated_Source\PSoC5/isr_eoc_getValue.c **** *   None
 165:Generated_Source\PSoC5/isr_eoc_getValue.c **** *
 166:Generated_Source\PSoC5/isr_eoc_getValue.c **** *******************************************************************************/
 167:Generated_Source\PSoC5/isr_eoc_getValue.c **** CY_ISR(isr_eoc_getValue_Interrupt)
 168:Generated_Source\PSoC5/isr_eoc_getValue.c **** {
 141              		.loc 1 168 0
 142              		.cfi_startproc
 143              		@ args = 0, pretend = 0, frame = 0
 144              		@ frame_needed = 1, uses_anonymous_args = 0
 145 0000 98B5     		push	{r3, r4, r7, lr}
 146              		.cfi_def_cfa_offset 16
 147              		.cfi_offset 3, -16
 148              		.cfi_offset 4, -12
 149              		.cfi_offset 7, -8
 150              		.cfi_offset 14, -4
 151 0002 00AF     		add	r7, sp, #0
 152              		.cfi_def_cfa_register 7
 169:Generated_Source\PSoC5/isr_eoc_getValue.c ****     #ifdef isr_eoc_getValue_INTERRUPT_INTERRUPT_CALLBACK
 170:Generated_Source\PSoC5/isr_eoc_getValue.c ****         isr_eoc_getValue_Interrupt_InterruptCallback();
 171:Generated_Source\PSoC5/isr_eoc_getValue.c ****     #endif /* isr_eoc_getValue_INTERRUPT_INTERRUPT_CALLBACK */ 
 172:Generated_Source\PSoC5/isr_eoc_getValue.c **** 
 173:Generated_Source\PSoC5/isr_eoc_getValue.c ****     /*  Place your Interrupt code here. */
 174:Generated_Source\PSoC5/isr_eoc_getValue.c ****     /* `#START isr_eoc_getValue_Interrupt` */
 175:Generated_Source\PSoC5/isr_eoc_getValue.c ****     
 176:Generated_Source\PSoC5/isr_eoc_getValue.c ****         CyGlobalIntDisable
 153              		.loc 1 176 0
 154              		.syntax unified
 155              	@ 176 "Generated_Source\PSoC5\isr_eoc_getValue.c" 1
 156 0004 72B6     		CPSID   i
 157              	@ 0 "" 2
 177:Generated_Source\PSoC5/isr_eoc_getValue.c ****         gInputSum += ADC_DelSig_1_CountsTo_mVolts(ADC_DelSig_1_GetResult16()); // sum up each input
 158              		.loc 1 177 0
 159              		.thumb
 160              		.syntax unified
 161 0006 FFF7FEFF 		bl	ADC_DelSig_1_GetResult16
 162 000a 0346     		mov	r3, r0
 163 000c 1846     		mov	r0, r3
 164 000e FFF7FEFF 		bl	ADC_DelSig_1_CountsTo_mVolts
 165 0012 0346     		mov	r3, r0
ARM GAS  C:\Users\z004c8dn\AppData\Local\Temp\cctviM4R.s 			page 7


 166 0014 19B2     		sxth	r1, r3
 167 0016 4FEAE172 		asr	r2, r1, #31
 168 001a 054B     		ldr	r3, .L9
 169 001c 18CB     		ldmia	r3, {r3-r4}
 170 001e 5B18     		adds	r3, r3, r1
 171 0020 44EB0204 		adc	r4, r4, r2
 172 0024 024A     		ldr	r2, .L9
 173 0026 C2E90034 		strd	r3, [r2]
 178:Generated_Source\PSoC5/isr_eoc_getValue.c ****         CyGlobalIntEnable
 174              		.loc 1 178 0
 175              		.syntax unified
 176              	@ 178 "Generated_Source\PSoC5\isr_eoc_getValue.c" 1
 177 002a 62B6     		CPSIE   i
 178              	@ 0 "" 2
 179:Generated_Source\PSoC5/isr_eoc_getValue.c ****     /* `#END` */
 180:Generated_Source\PSoC5/isr_eoc_getValue.c **** }
 179              		.loc 1 180 0
 180              		.thumb
 181              		.syntax unified
 182 002c 00BF     		nop
 183 002e 98BD     		pop	{r3, r4, r7, pc}
 184              	.L10:
 185              		.align	2
 186              	.L9:
 187 0030 00000000 		.word	gInputSum
 188              		.cfi_endproc
 189              	.LFE66:
 190              		.size	isr_eoc_getValue_Interrupt, .-isr_eoc_getValue_Interrupt
 191              		.section	.text.isr_eoc_getValue_SetVector,"ax",%progbits
 192              		.align	2
 193              		.global	isr_eoc_getValue_SetVector
 194              		.thumb
 195              		.thumb_func
 196              		.type	isr_eoc_getValue_SetVector, %function
 197              	isr_eoc_getValue_SetVector:
 198              	.LFB67:
 181:Generated_Source\PSoC5/isr_eoc_getValue.c **** 
 182:Generated_Source\PSoC5/isr_eoc_getValue.c **** 
 183:Generated_Source\PSoC5/isr_eoc_getValue.c **** /*******************************************************************************
 184:Generated_Source\PSoC5/isr_eoc_getValue.c **** * Function Name: isr_eoc_getValue_SetVector
 185:Generated_Source\PSoC5/isr_eoc_getValue.c **** ********************************************************************************
 186:Generated_Source\PSoC5/isr_eoc_getValue.c **** *
 187:Generated_Source\PSoC5/isr_eoc_getValue.c **** * Summary:
 188:Generated_Source\PSoC5/isr_eoc_getValue.c **** *   Change the ISR vector for the Interrupt. Note calling isr_eoc_getValue_Start
 189:Generated_Source\PSoC5/isr_eoc_getValue.c **** *   will override any effect this method would have had. To set the vector 
 190:Generated_Source\PSoC5/isr_eoc_getValue.c **** *   before the component has been started use isr_eoc_getValue_StartEx instead.
 191:Generated_Source\PSoC5/isr_eoc_getValue.c **** * 
 192:Generated_Source\PSoC5/isr_eoc_getValue.c **** *   When defining ISR functions, the CY_ISR and CY_ISR_PROTO macros should be 
 193:Generated_Source\PSoC5/isr_eoc_getValue.c **** *   used to provide consistent definition across compilers:
 194:Generated_Source\PSoC5/isr_eoc_getValue.c **** *
 195:Generated_Source\PSoC5/isr_eoc_getValue.c **** *   Function definition example:
 196:Generated_Source\PSoC5/isr_eoc_getValue.c **** *   CY_ISR(MyISR)
 197:Generated_Source\PSoC5/isr_eoc_getValue.c **** *   {
 198:Generated_Source\PSoC5/isr_eoc_getValue.c **** *   }
 199:Generated_Source\PSoC5/isr_eoc_getValue.c **** *
 200:Generated_Source\PSoC5/isr_eoc_getValue.c **** *   Function prototype example:
 201:Generated_Source\PSoC5/isr_eoc_getValue.c **** *     CY_ISR_PROTO(MyISR);
ARM GAS  C:\Users\z004c8dn\AppData\Local\Temp\cctviM4R.s 			page 8


 202:Generated_Source\PSoC5/isr_eoc_getValue.c **** *
 203:Generated_Source\PSoC5/isr_eoc_getValue.c **** * Parameters:
 204:Generated_Source\PSoC5/isr_eoc_getValue.c **** *   address: Address of the ISR to set in the interrupt vector table.
 205:Generated_Source\PSoC5/isr_eoc_getValue.c **** *
 206:Generated_Source\PSoC5/isr_eoc_getValue.c **** * Return:
 207:Generated_Source\PSoC5/isr_eoc_getValue.c **** *   None
 208:Generated_Source\PSoC5/isr_eoc_getValue.c **** *
 209:Generated_Source\PSoC5/isr_eoc_getValue.c **** *******************************************************************************/
 210:Generated_Source\PSoC5/isr_eoc_getValue.c **** void isr_eoc_getValue_SetVector(cyisraddress address)
 211:Generated_Source\PSoC5/isr_eoc_getValue.c **** {
 199              		.loc 1 211 0
 200              		.cfi_startproc
 201              		@ args = 0, pretend = 0, frame = 16
 202              		@ frame_needed = 1, uses_anonymous_args = 0
 203              		@ link register save eliminated.
 204 0000 80B4     		push	{r7}
 205              		.cfi_def_cfa_offset 4
 206              		.cfi_offset 7, -4
 207 0002 85B0     		sub	sp, sp, #20
 208              		.cfi_def_cfa_offset 24
 209 0004 00AF     		add	r7, sp, #0
 210              		.cfi_def_cfa_register 7
 211 0006 7860     		str	r0, [r7, #4]
 212:Generated_Source\PSoC5/isr_eoc_getValue.c ****     cyisraddress * ramVectorTable;
 213:Generated_Source\PSoC5/isr_eoc_getValue.c **** 
 214:Generated_Source\PSoC5/isr_eoc_getValue.c ****     ramVectorTable = (cyisraddress *) *CYINT_VECT_TABLE;
 212              		.loc 1 214 0
 213 0008 054B     		ldr	r3, .L12
 214 000a 1B68     		ldr	r3, [r3]
 215 000c FB60     		str	r3, [r7, #12]
 215:Generated_Source\PSoC5/isr_eoc_getValue.c **** 
 216:Generated_Source\PSoC5/isr_eoc_getValue.c ****     ramVectorTable[CYINT_IRQ_BASE + (uint32)isr_eoc_getValue__INTC_NUMBER] = address;
 216              		.loc 1 216 0
 217 000e FB68     		ldr	r3, [r7, #12]
 218 0010 4833     		adds	r3, r3, #72
 219 0012 7A68     		ldr	r2, [r7, #4]
 220 0014 1A60     		str	r2, [r3]
 217:Generated_Source\PSoC5/isr_eoc_getValue.c **** }
 221              		.loc 1 217 0
 222 0016 00BF     		nop
 223 0018 1437     		adds	r7, r7, #20
 224              		.cfi_def_cfa_offset 4
 225 001a BD46     		mov	sp, r7
 226              		.cfi_def_cfa_register 13
 227              		@ sp needed
 228 001c 80BC     		pop	{r7}
 229              		.cfi_restore 7
 230              		.cfi_def_cfa_offset 0
 231 001e 7047     		bx	lr
 232              	.L13:
 233              		.align	2
 234              	.L12:
 235 0020 08ED00E0 		.word	-536810232
 236              		.cfi_endproc
 237              	.LFE67:
 238              		.size	isr_eoc_getValue_SetVector, .-isr_eoc_getValue_SetVector
 239              		.section	.text.isr_eoc_getValue_GetVector,"ax",%progbits
ARM GAS  C:\Users\z004c8dn\AppData\Local\Temp\cctviM4R.s 			page 9


 240              		.align	2
 241              		.global	isr_eoc_getValue_GetVector
 242              		.thumb
 243              		.thumb_func
 244              		.type	isr_eoc_getValue_GetVector, %function
 245              	isr_eoc_getValue_GetVector:
 246              	.LFB68:
 218:Generated_Source\PSoC5/isr_eoc_getValue.c **** 
 219:Generated_Source\PSoC5/isr_eoc_getValue.c **** 
 220:Generated_Source\PSoC5/isr_eoc_getValue.c **** /*******************************************************************************
 221:Generated_Source\PSoC5/isr_eoc_getValue.c **** * Function Name: isr_eoc_getValue_GetVector
 222:Generated_Source\PSoC5/isr_eoc_getValue.c **** ********************************************************************************
 223:Generated_Source\PSoC5/isr_eoc_getValue.c **** *
 224:Generated_Source\PSoC5/isr_eoc_getValue.c **** * Summary:
 225:Generated_Source\PSoC5/isr_eoc_getValue.c **** *   Gets the "address" of the current ISR vector for the Interrupt.
 226:Generated_Source\PSoC5/isr_eoc_getValue.c **** *
 227:Generated_Source\PSoC5/isr_eoc_getValue.c **** * Parameters:
 228:Generated_Source\PSoC5/isr_eoc_getValue.c **** *   None
 229:Generated_Source\PSoC5/isr_eoc_getValue.c **** *
 230:Generated_Source\PSoC5/isr_eoc_getValue.c **** * Return:
 231:Generated_Source\PSoC5/isr_eoc_getValue.c **** *   Address of the ISR in the interrupt vector table.
 232:Generated_Source\PSoC5/isr_eoc_getValue.c **** *
 233:Generated_Source\PSoC5/isr_eoc_getValue.c **** *******************************************************************************/
 234:Generated_Source\PSoC5/isr_eoc_getValue.c **** cyisraddress isr_eoc_getValue_GetVector(void)
 235:Generated_Source\PSoC5/isr_eoc_getValue.c **** {
 247              		.loc 1 235 0
 248              		.cfi_startproc
 249              		@ args = 0, pretend = 0, frame = 8
 250              		@ frame_needed = 1, uses_anonymous_args = 0
 251              		@ link register save eliminated.
 252 0000 80B4     		push	{r7}
 253              		.cfi_def_cfa_offset 4
 254              		.cfi_offset 7, -4
 255 0002 83B0     		sub	sp, sp, #12
 256              		.cfi_def_cfa_offset 16
 257 0004 00AF     		add	r7, sp, #0
 258              		.cfi_def_cfa_register 7
 236:Generated_Source\PSoC5/isr_eoc_getValue.c ****     cyisraddress * ramVectorTable;
 237:Generated_Source\PSoC5/isr_eoc_getValue.c **** 
 238:Generated_Source\PSoC5/isr_eoc_getValue.c ****     ramVectorTable = (cyisraddress *) *CYINT_VECT_TABLE;
 259              		.loc 1 238 0
 260 0006 054B     		ldr	r3, .L16
 261 0008 1B68     		ldr	r3, [r3]
 262 000a 7B60     		str	r3, [r7, #4]
 239:Generated_Source\PSoC5/isr_eoc_getValue.c **** 
 240:Generated_Source\PSoC5/isr_eoc_getValue.c ****     return ramVectorTable[CYINT_IRQ_BASE + (uint32)isr_eoc_getValue__INTC_NUMBER];
 263              		.loc 1 240 0
 264 000c 7B68     		ldr	r3, [r7, #4]
 265 000e 9B6C     		ldr	r3, [r3, #72]
 241:Generated_Source\PSoC5/isr_eoc_getValue.c **** }
 266              		.loc 1 241 0
 267 0010 1846     		mov	r0, r3
 268 0012 0C37     		adds	r7, r7, #12
 269              		.cfi_def_cfa_offset 4
 270 0014 BD46     		mov	sp, r7
 271              		.cfi_def_cfa_register 13
 272              		@ sp needed
ARM GAS  C:\Users\z004c8dn\AppData\Local\Temp\cctviM4R.s 			page 10


 273 0016 80BC     		pop	{r7}
 274              		.cfi_restore 7
 275              		.cfi_def_cfa_offset 0
 276 0018 7047     		bx	lr
 277              	.L17:
 278 001a 00BF     		.align	2
 279              	.L16:
 280 001c 08ED00E0 		.word	-536810232
 281              		.cfi_endproc
 282              	.LFE68:
 283              		.size	isr_eoc_getValue_GetVector, .-isr_eoc_getValue_GetVector
 284              		.section	.text.isr_eoc_getValue_SetPriority,"ax",%progbits
 285              		.align	2
 286              		.global	isr_eoc_getValue_SetPriority
 287              		.thumb
 288              		.thumb_func
 289              		.type	isr_eoc_getValue_SetPriority, %function
 290              	isr_eoc_getValue_SetPriority:
 291              	.LFB69:
 242:Generated_Source\PSoC5/isr_eoc_getValue.c **** 
 243:Generated_Source\PSoC5/isr_eoc_getValue.c **** 
 244:Generated_Source\PSoC5/isr_eoc_getValue.c **** /*******************************************************************************
 245:Generated_Source\PSoC5/isr_eoc_getValue.c **** * Function Name: isr_eoc_getValue_SetPriority
 246:Generated_Source\PSoC5/isr_eoc_getValue.c **** ********************************************************************************
 247:Generated_Source\PSoC5/isr_eoc_getValue.c **** *
 248:Generated_Source\PSoC5/isr_eoc_getValue.c **** * Summary:
 249:Generated_Source\PSoC5/isr_eoc_getValue.c **** *   Sets the Priority of the Interrupt. 
 250:Generated_Source\PSoC5/isr_eoc_getValue.c **** *
 251:Generated_Source\PSoC5/isr_eoc_getValue.c **** *   Note calling isr_eoc_getValue_Start or isr_eoc_getValue_StartEx will 
 252:Generated_Source\PSoC5/isr_eoc_getValue.c **** *   override any effect this API would have had. This API should only be called
 253:Generated_Source\PSoC5/isr_eoc_getValue.c **** *   after isr_eoc_getValue_Start or isr_eoc_getValue_StartEx has been called. 
 254:Generated_Source\PSoC5/isr_eoc_getValue.c **** *   To set the initial priority for the component, use the Design-Wide Resources
 255:Generated_Source\PSoC5/isr_eoc_getValue.c **** *   Interrupt Editor.
 256:Generated_Source\PSoC5/isr_eoc_getValue.c **** *
 257:Generated_Source\PSoC5/isr_eoc_getValue.c **** *   Note This API has no effect on Non-maskable interrupt NMI).
 258:Generated_Source\PSoC5/isr_eoc_getValue.c **** *
 259:Generated_Source\PSoC5/isr_eoc_getValue.c **** * Parameters:
 260:Generated_Source\PSoC5/isr_eoc_getValue.c **** *   priority: Priority of the interrupt, 0 being the highest priority
 261:Generated_Source\PSoC5/isr_eoc_getValue.c **** *             PSoC 3 and PSoC 5LP: Priority is from 0 to 7.
 262:Generated_Source\PSoC5/isr_eoc_getValue.c **** *             PSoC 4: Priority is from 0 to 3.
 263:Generated_Source\PSoC5/isr_eoc_getValue.c **** *
 264:Generated_Source\PSoC5/isr_eoc_getValue.c **** * Return:
 265:Generated_Source\PSoC5/isr_eoc_getValue.c **** *   None
 266:Generated_Source\PSoC5/isr_eoc_getValue.c **** *
 267:Generated_Source\PSoC5/isr_eoc_getValue.c **** *******************************************************************************/
 268:Generated_Source\PSoC5/isr_eoc_getValue.c **** void isr_eoc_getValue_SetPriority(uint8 priority)
 269:Generated_Source\PSoC5/isr_eoc_getValue.c **** {
 292              		.loc 1 269 0
 293              		.cfi_startproc
 294              		@ args = 0, pretend = 0, frame = 8
 295              		@ frame_needed = 1, uses_anonymous_args = 0
 296              		@ link register save eliminated.
 297 0000 80B4     		push	{r7}
 298              		.cfi_def_cfa_offset 4
 299              		.cfi_offset 7, -4
 300 0002 83B0     		sub	sp, sp, #12
 301              		.cfi_def_cfa_offset 16
ARM GAS  C:\Users\z004c8dn\AppData\Local\Temp\cctviM4R.s 			page 11


 302 0004 00AF     		add	r7, sp, #0
 303              		.cfi_def_cfa_register 7
 304 0006 0346     		mov	r3, r0
 305 0008 FB71     		strb	r3, [r7, #7]
 270:Generated_Source\PSoC5/isr_eoc_getValue.c ****     *isr_eoc_getValue_INTC_PRIOR = priority << 5;
 306              		.loc 1 270 0
 307 000a 054A     		ldr	r2, .L19
 308 000c FB79     		ldrb	r3, [r7, #7]
 309 000e 5B01     		lsls	r3, r3, #5
 310 0010 DBB2     		uxtb	r3, r3
 311 0012 1370     		strb	r3, [r2]
 271:Generated_Source\PSoC5/isr_eoc_getValue.c **** }
 312              		.loc 1 271 0
 313 0014 00BF     		nop
 314 0016 0C37     		adds	r7, r7, #12
 315              		.cfi_def_cfa_offset 4
 316 0018 BD46     		mov	sp, r7
 317              		.cfi_def_cfa_register 13
 318              		@ sp needed
 319 001a 80BC     		pop	{r7}
 320              		.cfi_restore 7
 321              		.cfi_def_cfa_offset 0
 322 001c 7047     		bx	lr
 323              	.L20:
 324 001e 00BF     		.align	2
 325              	.L19:
 326 0020 02E400E0 		.word	-536812542
 327              		.cfi_endproc
 328              	.LFE69:
 329              		.size	isr_eoc_getValue_SetPriority, .-isr_eoc_getValue_SetPriority
 330              		.section	.text.isr_eoc_getValue_GetPriority,"ax",%progbits
 331              		.align	2
 332              		.global	isr_eoc_getValue_GetPriority
 333              		.thumb
 334              		.thumb_func
 335              		.type	isr_eoc_getValue_GetPriority, %function
 336              	isr_eoc_getValue_GetPriority:
 337              	.LFB70:
 272:Generated_Source\PSoC5/isr_eoc_getValue.c **** 
 273:Generated_Source\PSoC5/isr_eoc_getValue.c **** 
 274:Generated_Source\PSoC5/isr_eoc_getValue.c **** /*******************************************************************************
 275:Generated_Source\PSoC5/isr_eoc_getValue.c **** * Function Name: isr_eoc_getValue_GetPriority
 276:Generated_Source\PSoC5/isr_eoc_getValue.c **** ********************************************************************************
 277:Generated_Source\PSoC5/isr_eoc_getValue.c **** *
 278:Generated_Source\PSoC5/isr_eoc_getValue.c **** * Summary:
 279:Generated_Source\PSoC5/isr_eoc_getValue.c **** *   Gets the Priority of the Interrupt.
 280:Generated_Source\PSoC5/isr_eoc_getValue.c **** *
 281:Generated_Source\PSoC5/isr_eoc_getValue.c **** * Parameters:
 282:Generated_Source\PSoC5/isr_eoc_getValue.c **** *   None
 283:Generated_Source\PSoC5/isr_eoc_getValue.c **** *
 284:Generated_Source\PSoC5/isr_eoc_getValue.c **** * Return:
 285:Generated_Source\PSoC5/isr_eoc_getValue.c **** *   Priority of the interrupt, 0 being the highest priority
 286:Generated_Source\PSoC5/isr_eoc_getValue.c **** *    PSoC 3 and PSoC 5LP: Priority is from 0 to 7.
 287:Generated_Source\PSoC5/isr_eoc_getValue.c **** *    PSoC 4: Priority is from 0 to 3.
 288:Generated_Source\PSoC5/isr_eoc_getValue.c **** *
 289:Generated_Source\PSoC5/isr_eoc_getValue.c **** *******************************************************************************/
 290:Generated_Source\PSoC5/isr_eoc_getValue.c **** uint8 isr_eoc_getValue_GetPriority(void)
ARM GAS  C:\Users\z004c8dn\AppData\Local\Temp\cctviM4R.s 			page 12


 291:Generated_Source\PSoC5/isr_eoc_getValue.c **** {
 338              		.loc 1 291 0
 339              		.cfi_startproc
 340              		@ args = 0, pretend = 0, frame = 8
 341              		@ frame_needed = 1, uses_anonymous_args = 0
 342              		@ link register save eliminated.
 343 0000 80B4     		push	{r7}
 344              		.cfi_def_cfa_offset 4
 345              		.cfi_offset 7, -4
 346 0002 83B0     		sub	sp, sp, #12
 347              		.cfi_def_cfa_offset 16
 348 0004 00AF     		add	r7, sp, #0
 349              		.cfi_def_cfa_register 7
 292:Generated_Source\PSoC5/isr_eoc_getValue.c ****     uint8 priority;
 293:Generated_Source\PSoC5/isr_eoc_getValue.c **** 
 294:Generated_Source\PSoC5/isr_eoc_getValue.c **** 
 295:Generated_Source\PSoC5/isr_eoc_getValue.c ****     priority = *isr_eoc_getValue_INTC_PRIOR >> 5;
 350              		.loc 1 295 0
 351 0006 054B     		ldr	r3, .L23
 352 0008 1B78     		ldrb	r3, [r3]
 353 000a DBB2     		uxtb	r3, r3
 354 000c 5B09     		lsrs	r3, r3, #5
 355 000e FB71     		strb	r3, [r7, #7]
 296:Generated_Source\PSoC5/isr_eoc_getValue.c **** 
 297:Generated_Source\PSoC5/isr_eoc_getValue.c ****     return priority;
 356              		.loc 1 297 0
 357 0010 FB79     		ldrb	r3, [r7, #7]	@ zero_extendqisi2
 298:Generated_Source\PSoC5/isr_eoc_getValue.c **** }
 358              		.loc 1 298 0
 359 0012 1846     		mov	r0, r3
 360 0014 0C37     		adds	r7, r7, #12
 361              		.cfi_def_cfa_offset 4
 362 0016 BD46     		mov	sp, r7
 363              		.cfi_def_cfa_register 13
 364              		@ sp needed
 365 0018 80BC     		pop	{r7}
 366              		.cfi_restore 7
 367              		.cfi_def_cfa_offset 0
 368 001a 7047     		bx	lr
 369              	.L24:
 370              		.align	2
 371              	.L23:
 372 001c 02E400E0 		.word	-536812542
 373              		.cfi_endproc
 374              	.LFE70:
 375              		.size	isr_eoc_getValue_GetPriority, .-isr_eoc_getValue_GetPriority
 376              		.section	.text.isr_eoc_getValue_Enable,"ax",%progbits
 377              		.align	2
 378              		.global	isr_eoc_getValue_Enable
 379              		.thumb
 380              		.thumb_func
 381              		.type	isr_eoc_getValue_Enable, %function
 382              	isr_eoc_getValue_Enable:
 383              	.LFB71:
 299:Generated_Source\PSoC5/isr_eoc_getValue.c **** 
 300:Generated_Source\PSoC5/isr_eoc_getValue.c **** 
 301:Generated_Source\PSoC5/isr_eoc_getValue.c **** /*******************************************************************************
ARM GAS  C:\Users\z004c8dn\AppData\Local\Temp\cctviM4R.s 			page 13


 302:Generated_Source\PSoC5/isr_eoc_getValue.c **** * Function Name: isr_eoc_getValue_Enable
 303:Generated_Source\PSoC5/isr_eoc_getValue.c **** ********************************************************************************
 304:Generated_Source\PSoC5/isr_eoc_getValue.c **** *
 305:Generated_Source\PSoC5/isr_eoc_getValue.c **** * Summary:
 306:Generated_Source\PSoC5/isr_eoc_getValue.c **** *   Enables the interrupt to the interrupt controller. Do not call this function
 307:Generated_Source\PSoC5/isr_eoc_getValue.c **** *   unless ISR_Start() has been called or the functionality of the ISR_Start() 
 308:Generated_Source\PSoC5/isr_eoc_getValue.c **** *   function, which sets the vector and the priority, has been called.
 309:Generated_Source\PSoC5/isr_eoc_getValue.c **** *
 310:Generated_Source\PSoC5/isr_eoc_getValue.c **** * Parameters:
 311:Generated_Source\PSoC5/isr_eoc_getValue.c **** *   None
 312:Generated_Source\PSoC5/isr_eoc_getValue.c **** *
 313:Generated_Source\PSoC5/isr_eoc_getValue.c **** * Return:
 314:Generated_Source\PSoC5/isr_eoc_getValue.c **** *   None
 315:Generated_Source\PSoC5/isr_eoc_getValue.c **** *
 316:Generated_Source\PSoC5/isr_eoc_getValue.c **** *******************************************************************************/
 317:Generated_Source\PSoC5/isr_eoc_getValue.c **** void isr_eoc_getValue_Enable(void)
 318:Generated_Source\PSoC5/isr_eoc_getValue.c **** {
 384              		.loc 1 318 0
 385              		.cfi_startproc
 386              		@ args = 0, pretend = 0, frame = 0
 387              		@ frame_needed = 1, uses_anonymous_args = 0
 388              		@ link register save eliminated.
 389 0000 80B4     		push	{r7}
 390              		.cfi_def_cfa_offset 4
 391              		.cfi_offset 7, -4
 392 0002 00AF     		add	r7, sp, #0
 393              		.cfi_def_cfa_register 7
 319:Generated_Source\PSoC5/isr_eoc_getValue.c ****     /* Enable the general interrupt. */
 320:Generated_Source\PSoC5/isr_eoc_getValue.c ****     *isr_eoc_getValue_INTC_SET_EN = isr_eoc_getValue__INTC_MASK;
 394              		.loc 1 320 0
 395 0004 034B     		ldr	r3, .L26
 396 0006 0422     		movs	r2, #4
 397 0008 1A60     		str	r2, [r3]
 321:Generated_Source\PSoC5/isr_eoc_getValue.c **** }
 398              		.loc 1 321 0
 399 000a 00BF     		nop
 400 000c BD46     		mov	sp, r7
 401              		.cfi_def_cfa_register 13
 402              		@ sp needed
 403 000e 80BC     		pop	{r7}
 404              		.cfi_restore 7
 405              		.cfi_def_cfa_offset 0
 406 0010 7047     		bx	lr
 407              	.L27:
 408 0012 00BF     		.align	2
 409              	.L26:
 410 0014 00E100E0 		.word	-536813312
 411              		.cfi_endproc
 412              	.LFE71:
 413              		.size	isr_eoc_getValue_Enable, .-isr_eoc_getValue_Enable
 414              		.section	.text.isr_eoc_getValue_GetState,"ax",%progbits
 415              		.align	2
 416              		.global	isr_eoc_getValue_GetState
 417              		.thumb
 418              		.thumb_func
 419              		.type	isr_eoc_getValue_GetState, %function
 420              	isr_eoc_getValue_GetState:
ARM GAS  C:\Users\z004c8dn\AppData\Local\Temp\cctviM4R.s 			page 14


 421              	.LFB72:
 322:Generated_Source\PSoC5/isr_eoc_getValue.c **** 
 323:Generated_Source\PSoC5/isr_eoc_getValue.c **** 
 324:Generated_Source\PSoC5/isr_eoc_getValue.c **** /*******************************************************************************
 325:Generated_Source\PSoC5/isr_eoc_getValue.c **** * Function Name: isr_eoc_getValue_GetState
 326:Generated_Source\PSoC5/isr_eoc_getValue.c **** ********************************************************************************
 327:Generated_Source\PSoC5/isr_eoc_getValue.c **** *
 328:Generated_Source\PSoC5/isr_eoc_getValue.c **** * Summary:
 329:Generated_Source\PSoC5/isr_eoc_getValue.c **** *   Gets the state (enabled, disabled) of the Interrupt.
 330:Generated_Source\PSoC5/isr_eoc_getValue.c **** *
 331:Generated_Source\PSoC5/isr_eoc_getValue.c **** * Parameters:
 332:Generated_Source\PSoC5/isr_eoc_getValue.c **** *   None
 333:Generated_Source\PSoC5/isr_eoc_getValue.c **** *
 334:Generated_Source\PSoC5/isr_eoc_getValue.c **** * Return:
 335:Generated_Source\PSoC5/isr_eoc_getValue.c **** *   1 if enabled, 0 if disabled.
 336:Generated_Source\PSoC5/isr_eoc_getValue.c **** *
 337:Generated_Source\PSoC5/isr_eoc_getValue.c **** *******************************************************************************/
 338:Generated_Source\PSoC5/isr_eoc_getValue.c **** uint8 isr_eoc_getValue_GetState(void)
 339:Generated_Source\PSoC5/isr_eoc_getValue.c **** {
 422              		.loc 1 339 0
 423              		.cfi_startproc
 424              		@ args = 0, pretend = 0, frame = 0
 425              		@ frame_needed = 1, uses_anonymous_args = 0
 426              		@ link register save eliminated.
 427 0000 80B4     		push	{r7}
 428              		.cfi_def_cfa_offset 4
 429              		.cfi_offset 7, -4
 430 0002 00AF     		add	r7, sp, #0
 431              		.cfi_def_cfa_register 7
 340:Generated_Source\PSoC5/isr_eoc_getValue.c ****     /* Get the state of the general interrupt. */
 341:Generated_Source\PSoC5/isr_eoc_getValue.c ****     return ((*isr_eoc_getValue_INTC_SET_EN & (uint32)isr_eoc_getValue__INTC_MASK) != 0u) ? 1u:0u;
 432              		.loc 1 341 0
 433 0004 064B     		ldr	r3, .L32
 434 0006 1B68     		ldr	r3, [r3]
 435 0008 03F00403 		and	r3, r3, #4
 436 000c 002B     		cmp	r3, #0
 437 000e 01D0     		beq	.L29
 438              		.loc 1 341 0 is_stmt 0 discriminator 1
 439 0010 0123     		movs	r3, #1
 440 0012 00E0     		b	.L30
 441              	.L29:
 442              		.loc 1 341 0 discriminator 2
 443 0014 0023     		movs	r3, #0
 444              	.L30:
 342:Generated_Source\PSoC5/isr_eoc_getValue.c **** }
 445              		.loc 1 342 0 is_stmt 1 discriminator 4
 446 0016 1846     		mov	r0, r3
 447 0018 BD46     		mov	sp, r7
 448              		.cfi_def_cfa_register 13
 449              		@ sp needed
 450 001a 80BC     		pop	{r7}
 451              		.cfi_restore 7
 452              		.cfi_def_cfa_offset 0
 453 001c 7047     		bx	lr
 454              	.L33:
 455 001e 00BF     		.align	2
 456              	.L32:
ARM GAS  C:\Users\z004c8dn\AppData\Local\Temp\cctviM4R.s 			page 15


 457 0020 00E100E0 		.word	-536813312
 458              		.cfi_endproc
 459              	.LFE72:
 460              		.size	isr_eoc_getValue_GetState, .-isr_eoc_getValue_GetState
 461              		.section	.text.isr_eoc_getValue_Disable,"ax",%progbits
 462              		.align	2
 463              		.global	isr_eoc_getValue_Disable
 464              		.thumb
 465              		.thumb_func
 466              		.type	isr_eoc_getValue_Disable, %function
 467              	isr_eoc_getValue_Disable:
 468              	.LFB73:
 343:Generated_Source\PSoC5/isr_eoc_getValue.c **** 
 344:Generated_Source\PSoC5/isr_eoc_getValue.c **** 
 345:Generated_Source\PSoC5/isr_eoc_getValue.c **** /*******************************************************************************
 346:Generated_Source\PSoC5/isr_eoc_getValue.c **** * Function Name: isr_eoc_getValue_Disable
 347:Generated_Source\PSoC5/isr_eoc_getValue.c **** ********************************************************************************
 348:Generated_Source\PSoC5/isr_eoc_getValue.c **** *
 349:Generated_Source\PSoC5/isr_eoc_getValue.c **** * Summary:
 350:Generated_Source\PSoC5/isr_eoc_getValue.c **** *   Disables the Interrupt in the interrupt controller.
 351:Generated_Source\PSoC5/isr_eoc_getValue.c **** *
 352:Generated_Source\PSoC5/isr_eoc_getValue.c **** * Parameters:
 353:Generated_Source\PSoC5/isr_eoc_getValue.c **** *   None
 354:Generated_Source\PSoC5/isr_eoc_getValue.c **** *
 355:Generated_Source\PSoC5/isr_eoc_getValue.c **** * Return:
 356:Generated_Source\PSoC5/isr_eoc_getValue.c **** *   None
 357:Generated_Source\PSoC5/isr_eoc_getValue.c **** *
 358:Generated_Source\PSoC5/isr_eoc_getValue.c **** *******************************************************************************/
 359:Generated_Source\PSoC5/isr_eoc_getValue.c **** void isr_eoc_getValue_Disable(void)
 360:Generated_Source\PSoC5/isr_eoc_getValue.c **** {
 469              		.loc 1 360 0
 470              		.cfi_startproc
 471              		@ args = 0, pretend = 0, frame = 0
 472              		@ frame_needed = 1, uses_anonymous_args = 0
 473              		@ link register save eliminated.
 474 0000 80B4     		push	{r7}
 475              		.cfi_def_cfa_offset 4
 476              		.cfi_offset 7, -4
 477 0002 00AF     		add	r7, sp, #0
 478              		.cfi_def_cfa_register 7
 361:Generated_Source\PSoC5/isr_eoc_getValue.c ****     /* Disable the general interrupt. */
 362:Generated_Source\PSoC5/isr_eoc_getValue.c ****     *isr_eoc_getValue_INTC_CLR_EN = isr_eoc_getValue__INTC_MASK;
 479              		.loc 1 362 0
 480 0004 034B     		ldr	r3, .L35
 481 0006 0422     		movs	r2, #4
 482 0008 1A60     		str	r2, [r3]
 363:Generated_Source\PSoC5/isr_eoc_getValue.c **** }
 483              		.loc 1 363 0
 484 000a 00BF     		nop
 485 000c BD46     		mov	sp, r7
 486              		.cfi_def_cfa_register 13
 487              		@ sp needed
 488 000e 80BC     		pop	{r7}
 489              		.cfi_restore 7
 490              		.cfi_def_cfa_offset 0
 491 0010 7047     		bx	lr
 492              	.L36:
ARM GAS  C:\Users\z004c8dn\AppData\Local\Temp\cctviM4R.s 			page 16


 493 0012 00BF     		.align	2
 494              	.L35:
 495 0014 80E100E0 		.word	-536813184
 496              		.cfi_endproc
 497              	.LFE73:
 498              		.size	isr_eoc_getValue_Disable, .-isr_eoc_getValue_Disable
 499              		.section	.text.isr_eoc_getValue_SetPending,"ax",%progbits
 500              		.align	2
 501              		.global	isr_eoc_getValue_SetPending
 502              		.thumb
 503              		.thumb_func
 504              		.type	isr_eoc_getValue_SetPending, %function
 505              	isr_eoc_getValue_SetPending:
 506              	.LFB74:
 364:Generated_Source\PSoC5/isr_eoc_getValue.c **** 
 365:Generated_Source\PSoC5/isr_eoc_getValue.c **** 
 366:Generated_Source\PSoC5/isr_eoc_getValue.c **** /*******************************************************************************
 367:Generated_Source\PSoC5/isr_eoc_getValue.c **** * Function Name: isr_eoc_getValue_SetPending
 368:Generated_Source\PSoC5/isr_eoc_getValue.c **** ********************************************************************************
 369:Generated_Source\PSoC5/isr_eoc_getValue.c **** *
 370:Generated_Source\PSoC5/isr_eoc_getValue.c **** * Summary:
 371:Generated_Source\PSoC5/isr_eoc_getValue.c **** *   Causes the Interrupt to enter the pending state, a software method of
 372:Generated_Source\PSoC5/isr_eoc_getValue.c **** *   generating the interrupt.
 373:Generated_Source\PSoC5/isr_eoc_getValue.c **** *
 374:Generated_Source\PSoC5/isr_eoc_getValue.c **** * Parameters:
 375:Generated_Source\PSoC5/isr_eoc_getValue.c **** *   None
 376:Generated_Source\PSoC5/isr_eoc_getValue.c **** *
 377:Generated_Source\PSoC5/isr_eoc_getValue.c **** * Return:
 378:Generated_Source\PSoC5/isr_eoc_getValue.c **** *   None
 379:Generated_Source\PSoC5/isr_eoc_getValue.c **** *
 380:Generated_Source\PSoC5/isr_eoc_getValue.c **** * Side Effects:
 381:Generated_Source\PSoC5/isr_eoc_getValue.c **** *   If interrupts are enabled and the interrupt is set up properly, the ISR is
 382:Generated_Source\PSoC5/isr_eoc_getValue.c **** *   entered (depending on the priority of this interrupt and other pending 
 383:Generated_Source\PSoC5/isr_eoc_getValue.c **** *   interrupts).
 384:Generated_Source\PSoC5/isr_eoc_getValue.c **** *
 385:Generated_Source\PSoC5/isr_eoc_getValue.c **** *******************************************************************************/
 386:Generated_Source\PSoC5/isr_eoc_getValue.c **** void isr_eoc_getValue_SetPending(void)
 387:Generated_Source\PSoC5/isr_eoc_getValue.c **** {
 507              		.loc 1 387 0
 508              		.cfi_startproc
 509              		@ args = 0, pretend = 0, frame = 0
 510              		@ frame_needed = 1, uses_anonymous_args = 0
 511              		@ link register save eliminated.
 512 0000 80B4     		push	{r7}
 513              		.cfi_def_cfa_offset 4
 514              		.cfi_offset 7, -4
 515 0002 00AF     		add	r7, sp, #0
 516              		.cfi_def_cfa_register 7
 388:Generated_Source\PSoC5/isr_eoc_getValue.c ****     *isr_eoc_getValue_INTC_SET_PD = isr_eoc_getValue__INTC_MASK;
 517              		.loc 1 388 0
 518 0004 034B     		ldr	r3, .L38
 519 0006 0422     		movs	r2, #4
 520 0008 1A60     		str	r2, [r3]
 389:Generated_Source\PSoC5/isr_eoc_getValue.c **** }
 521              		.loc 1 389 0
 522 000a 00BF     		nop
 523 000c BD46     		mov	sp, r7
ARM GAS  C:\Users\z004c8dn\AppData\Local\Temp\cctviM4R.s 			page 17


 524              		.cfi_def_cfa_register 13
 525              		@ sp needed
 526 000e 80BC     		pop	{r7}
 527              		.cfi_restore 7
 528              		.cfi_def_cfa_offset 0
 529 0010 7047     		bx	lr
 530              	.L39:
 531 0012 00BF     		.align	2
 532              	.L38:
 533 0014 00E200E0 		.word	-536813056
 534              		.cfi_endproc
 535              	.LFE74:
 536              		.size	isr_eoc_getValue_SetPending, .-isr_eoc_getValue_SetPending
 537              		.section	.text.isr_eoc_getValue_ClearPending,"ax",%progbits
 538              		.align	2
 539              		.global	isr_eoc_getValue_ClearPending
 540              		.thumb
 541              		.thumb_func
 542              		.type	isr_eoc_getValue_ClearPending, %function
 543              	isr_eoc_getValue_ClearPending:
 544              	.LFB75:
 390:Generated_Source\PSoC5/isr_eoc_getValue.c **** 
 391:Generated_Source\PSoC5/isr_eoc_getValue.c **** 
 392:Generated_Source\PSoC5/isr_eoc_getValue.c **** /*******************************************************************************
 393:Generated_Source\PSoC5/isr_eoc_getValue.c **** * Function Name: isr_eoc_getValue_ClearPending
 394:Generated_Source\PSoC5/isr_eoc_getValue.c **** ********************************************************************************
 395:Generated_Source\PSoC5/isr_eoc_getValue.c **** *
 396:Generated_Source\PSoC5/isr_eoc_getValue.c **** * Summary:
 397:Generated_Source\PSoC5/isr_eoc_getValue.c **** *   Clears a pending interrupt in the interrupt controller.
 398:Generated_Source\PSoC5/isr_eoc_getValue.c **** *
 399:Generated_Source\PSoC5/isr_eoc_getValue.c **** *   Note Some interrupt sources are clear-on-read and require the block 
 400:Generated_Source\PSoC5/isr_eoc_getValue.c **** *   interrupt/status register to be read/cleared with the appropriate block API 
 401:Generated_Source\PSoC5/isr_eoc_getValue.c **** *   (GPIO, UART, and so on). Otherwise the ISR will continue to remain in 
 402:Generated_Source\PSoC5/isr_eoc_getValue.c **** *   pending state even though the interrupt itself is cleared using this API.
 403:Generated_Source\PSoC5/isr_eoc_getValue.c **** *
 404:Generated_Source\PSoC5/isr_eoc_getValue.c **** * Parameters:
 405:Generated_Source\PSoC5/isr_eoc_getValue.c **** *   None
 406:Generated_Source\PSoC5/isr_eoc_getValue.c **** *
 407:Generated_Source\PSoC5/isr_eoc_getValue.c **** * Return:
 408:Generated_Source\PSoC5/isr_eoc_getValue.c **** *   None
 409:Generated_Source\PSoC5/isr_eoc_getValue.c **** *
 410:Generated_Source\PSoC5/isr_eoc_getValue.c **** *******************************************************************************/
 411:Generated_Source\PSoC5/isr_eoc_getValue.c **** void isr_eoc_getValue_ClearPending(void)
 412:Generated_Source\PSoC5/isr_eoc_getValue.c **** {
 545              		.loc 1 412 0
 546              		.cfi_startproc
 547              		@ args = 0, pretend = 0, frame = 0
 548              		@ frame_needed = 1, uses_anonymous_args = 0
 549              		@ link register save eliminated.
 550 0000 80B4     		push	{r7}
 551              		.cfi_def_cfa_offset 4
 552              		.cfi_offset 7, -4
 553 0002 00AF     		add	r7, sp, #0
 554              		.cfi_def_cfa_register 7
 413:Generated_Source\PSoC5/isr_eoc_getValue.c ****     *isr_eoc_getValue_INTC_CLR_PD = isr_eoc_getValue__INTC_MASK;
 555              		.loc 1 413 0
 556 0004 034B     		ldr	r3, .L41
ARM GAS  C:\Users\z004c8dn\AppData\Local\Temp\cctviM4R.s 			page 18


 557 0006 0422     		movs	r2, #4
 558 0008 1A60     		str	r2, [r3]
 414:Generated_Source\PSoC5/isr_eoc_getValue.c **** }
 559              		.loc 1 414 0
 560 000a 00BF     		nop
 561 000c BD46     		mov	sp, r7
 562              		.cfi_def_cfa_register 13
 563              		@ sp needed
 564 000e 80BC     		pop	{r7}
 565              		.cfi_restore 7
 566              		.cfi_def_cfa_offset 0
 567 0010 7047     		bx	lr
 568              	.L42:
 569 0012 00BF     		.align	2
 570              	.L41:
 571 0014 80E200E0 		.word	-536812928
 572              		.cfi_endproc
 573              	.LFE75:
 574              		.size	isr_eoc_getValue_ClearPending, .-isr_eoc_getValue_ClearPending
 575              		.text
 576              	.Letext0:
 577              		.file 2 "c:\\program files (x86)\\cypress\\psoc creator\\4.4\\psoc creator\\import\\gnu\\arm\\5.4.
 578              		.file 3 "c:\\program files (x86)\\cypress\\psoc creator\\4.4\\psoc creator\\import\\gnu\\arm\\5.4.
 579              		.file 4 "Generated_Source\\PSoC5/cytypes.h"
 580              		.file 5 "Generated_Source\\PSoC5/core_cm3.h"