ARM GAS  C:\Users\z004c8dn\AppData\Local\Temp\ccZvNTSg.s 			page 1


   1              		.syntax unified
   2              		.cpu cortex-m3
   3              		.fpu softvfp
   4              		.eabi_attribute 20, 1
   5              		.eabi_attribute 21, 1
   6              		.eabi_attribute 23, 3
   7              		.eabi_attribute 24, 1
   8              		.eabi_attribute 25, 1
   9              		.eabi_attribute 26, 1
  10              		.eabi_attribute 30, 6
  11              		.eabi_attribute 34, 1
  12              		.eabi_attribute 18, 4
  13              		.thumb
  14              		.syntax unified
  15              		.file	"isr_SPI.c"
  16              		.text
  17              	.Ltext0:
  18              		.cfi_sections	.debug_frame
  19              		.section	.text.isr_SPI_Start,"ax",%progbits
  20              		.align	2
  21              		.global	isr_SPI_Start
  22              		.thumb
  23              		.thumb_func
  24              		.type	isr_SPI_Start, %function
  25              	isr_SPI_Start:
  26              	.LFB63:
  27              		.file 1 "Generated_Source\\PSoC5\\isr_SPI.c"
   1:Generated_Source\PSoC5/isr_SPI.c **** /*******************************************************************************
   2:Generated_Source\PSoC5/isr_SPI.c **** * File Name: isr_SPI.c  
   3:Generated_Source\PSoC5/isr_SPI.c **** * Version 1.70
   4:Generated_Source\PSoC5/isr_SPI.c **** *
   5:Generated_Source\PSoC5/isr_SPI.c **** *  Description:
   6:Generated_Source\PSoC5/isr_SPI.c **** *   API for controlling the state of an interrupt.
   7:Generated_Source\PSoC5/isr_SPI.c **** *
   8:Generated_Source\PSoC5/isr_SPI.c **** *
   9:Generated_Source\PSoC5/isr_SPI.c **** *  Note:
  10:Generated_Source\PSoC5/isr_SPI.c **** *
  11:Generated_Source\PSoC5/isr_SPI.c **** ********************************************************************************
  12:Generated_Source\PSoC5/isr_SPI.c **** * Copyright 2008-2015, Cypress Semiconductor Corporation.  All rights reserved.
  13:Generated_Source\PSoC5/isr_SPI.c **** * You may use this file only in accordance with the license, terms, conditions, 
  14:Generated_Source\PSoC5/isr_SPI.c **** * disclaimers, and limitations in the end user license agreement accompanying 
  15:Generated_Source\PSoC5/isr_SPI.c **** * the software package with which this file was provided.
  16:Generated_Source\PSoC5/isr_SPI.c **** *******************************************************************************/
  17:Generated_Source\PSoC5/isr_SPI.c **** 
  18:Generated_Source\PSoC5/isr_SPI.c **** 
  19:Generated_Source\PSoC5/isr_SPI.c **** #include <cydevice_trm.h>
  20:Generated_Source\PSoC5/isr_SPI.c **** #include <CyLib.h>
  21:Generated_Source\PSoC5/isr_SPI.c **** #include <isr_SPI.h>
  22:Generated_Source\PSoC5/isr_SPI.c **** #include "cyapicallbacks.h"
  23:Generated_Source\PSoC5/isr_SPI.c **** 
  24:Generated_Source\PSoC5/isr_SPI.c **** #if !defined(isr_SPI__REMOVED) /* Check for removal by optimization */
  25:Generated_Source\PSoC5/isr_SPI.c **** 
  26:Generated_Source\PSoC5/isr_SPI.c **** /*******************************************************************************
  27:Generated_Source\PSoC5/isr_SPI.c **** *  Place your includes, defines and code here 
  28:Generated_Source\PSoC5/isr_SPI.c **** ********************************************************************************/
  29:Generated_Source\PSoC5/isr_SPI.c **** /* `#START isr_SPI_intc` */
  30:Generated_Source\PSoC5/isr_SPI.c ****     #include "project.h"
ARM GAS  C:\Users\z004c8dn\AppData\Local\Temp\ccZvNTSg.s 			page 2


  31:Generated_Source\PSoC5/isr_SPI.c ****     
  32:Generated_Source\PSoC5/isr_SPI.c ****     #define BYTE_SIZE 8
  33:Generated_Source\PSoC5/isr_SPI.c ****     
  34:Generated_Source\PSoC5/isr_SPI.c ****     extern volatile uint16 gSpiRxBuffer;
  35:Generated_Source\PSoC5/isr_SPI.c **** /* `#END` */
  36:Generated_Source\PSoC5/isr_SPI.c **** 
  37:Generated_Source\PSoC5/isr_SPI.c **** #ifndef CYINT_IRQ_BASE
  38:Generated_Source\PSoC5/isr_SPI.c **** #define CYINT_IRQ_BASE      16
  39:Generated_Source\PSoC5/isr_SPI.c **** #endif /* CYINT_IRQ_BASE */
  40:Generated_Source\PSoC5/isr_SPI.c **** #ifndef CYINT_VECT_TABLE
  41:Generated_Source\PSoC5/isr_SPI.c **** #define CYINT_VECT_TABLE    ((cyisraddress **) CYREG_NVIC_VECT_OFFSET)
  42:Generated_Source\PSoC5/isr_SPI.c **** #endif /* CYINT_VECT_TABLE */
  43:Generated_Source\PSoC5/isr_SPI.c **** 
  44:Generated_Source\PSoC5/isr_SPI.c **** /* Declared in startup, used to set unused interrupts to. */
  45:Generated_Source\PSoC5/isr_SPI.c **** CY_ISR_PROTO(IntDefaultHandler);
  46:Generated_Source\PSoC5/isr_SPI.c **** 
  47:Generated_Source\PSoC5/isr_SPI.c **** 
  48:Generated_Source\PSoC5/isr_SPI.c **** /*******************************************************************************
  49:Generated_Source\PSoC5/isr_SPI.c **** * Function Name: isr_SPI_Start
  50:Generated_Source\PSoC5/isr_SPI.c **** ********************************************************************************
  51:Generated_Source\PSoC5/isr_SPI.c **** *
  52:Generated_Source\PSoC5/isr_SPI.c **** * Summary:
  53:Generated_Source\PSoC5/isr_SPI.c **** *  Set up the interrupt and enable it. This function disables the interrupt, 
  54:Generated_Source\PSoC5/isr_SPI.c **** *  sets the default interrupt vector, sets the priority from the value in the
  55:Generated_Source\PSoC5/isr_SPI.c **** *  Design Wide Resources Interrupt Editor, then enables the interrupt to the 
  56:Generated_Source\PSoC5/isr_SPI.c **** *  interrupt controller.
  57:Generated_Source\PSoC5/isr_SPI.c **** *
  58:Generated_Source\PSoC5/isr_SPI.c **** * Parameters:  
  59:Generated_Source\PSoC5/isr_SPI.c **** *   None
  60:Generated_Source\PSoC5/isr_SPI.c **** *
  61:Generated_Source\PSoC5/isr_SPI.c **** * Return:
  62:Generated_Source\PSoC5/isr_SPI.c **** *   None
  63:Generated_Source\PSoC5/isr_SPI.c **** *
  64:Generated_Source\PSoC5/isr_SPI.c **** *******************************************************************************/
  65:Generated_Source\PSoC5/isr_SPI.c **** void isr_SPI_Start(void)
  66:Generated_Source\PSoC5/isr_SPI.c **** {
  28              		.loc 1 66 0
  29              		.cfi_startproc
  30              		@ args = 0, pretend = 0, frame = 0
  31              		@ frame_needed = 1, uses_anonymous_args = 0
  32 0000 80B5     		push	{r7, lr}
  33              		.cfi_def_cfa_offset 8
  34              		.cfi_offset 7, -8
  35              		.cfi_offset 14, -4
  36 0002 00AF     		add	r7, sp, #0
  37              		.cfi_def_cfa_register 7
  67:Generated_Source\PSoC5/isr_SPI.c ****     /* For all we know the interrupt is active. */
  68:Generated_Source\PSoC5/isr_SPI.c ****     isr_SPI_Disable();
  38              		.loc 1 68 0
  39 0004 FFF7FEFF 		bl	isr_SPI_Disable
  69:Generated_Source\PSoC5/isr_SPI.c **** 
  70:Generated_Source\PSoC5/isr_SPI.c ****     /* Set the ISR to point to the isr_SPI Interrupt. */
  71:Generated_Source\PSoC5/isr_SPI.c ****     isr_SPI_SetVector(&isr_SPI_Interrupt);
  40              		.loc 1 71 0
  41 0008 0448     		ldr	r0, .L2
  42 000a FFF7FEFF 		bl	isr_SPI_SetVector
  72:Generated_Source\PSoC5/isr_SPI.c **** 
ARM GAS  C:\Users\z004c8dn\AppData\Local\Temp\ccZvNTSg.s 			page 3


  73:Generated_Source\PSoC5/isr_SPI.c ****     /* Set the priority. */
  74:Generated_Source\PSoC5/isr_SPI.c ****     isr_SPI_SetPriority((uint8)isr_SPI_INTC_PRIOR_NUMBER);
  43              		.loc 1 74 0
  44 000e 0720     		movs	r0, #7
  45 0010 FFF7FEFF 		bl	isr_SPI_SetPriority
  75:Generated_Source\PSoC5/isr_SPI.c **** 
  76:Generated_Source\PSoC5/isr_SPI.c ****     /* Enable it. */
  77:Generated_Source\PSoC5/isr_SPI.c ****     isr_SPI_Enable();
  46              		.loc 1 77 0
  47 0014 FFF7FEFF 		bl	isr_SPI_Enable
  78:Generated_Source\PSoC5/isr_SPI.c **** }
  48              		.loc 1 78 0
  49 0018 00BF     		nop
  50 001a 80BD     		pop	{r7, pc}
  51              	.L3:
  52              		.align	2
  53              	.L2:
  54 001c 00000000 		.word	isr_SPI_Interrupt
  55              		.cfi_endproc
  56              	.LFE63:
  57              		.size	isr_SPI_Start, .-isr_SPI_Start
  58              		.section	.text.isr_SPI_StartEx,"ax",%progbits
  59              		.align	2
  60              		.global	isr_SPI_StartEx
  61              		.thumb
  62              		.thumb_func
  63              		.type	isr_SPI_StartEx, %function
  64              	isr_SPI_StartEx:
  65              	.LFB64:
  79:Generated_Source\PSoC5/isr_SPI.c **** 
  80:Generated_Source\PSoC5/isr_SPI.c **** 
  81:Generated_Source\PSoC5/isr_SPI.c **** /*******************************************************************************
  82:Generated_Source\PSoC5/isr_SPI.c **** * Function Name: isr_SPI_StartEx
  83:Generated_Source\PSoC5/isr_SPI.c **** ********************************************************************************
  84:Generated_Source\PSoC5/isr_SPI.c **** *
  85:Generated_Source\PSoC5/isr_SPI.c **** * Summary:
  86:Generated_Source\PSoC5/isr_SPI.c **** *  Sets up the interrupt and enables it. This function disables the interrupt,
  87:Generated_Source\PSoC5/isr_SPI.c **** *  sets the interrupt vector based on the address passed in, sets the priority 
  88:Generated_Source\PSoC5/isr_SPI.c **** *  from the value in the Design Wide Resources Interrupt Editor, then enables 
  89:Generated_Source\PSoC5/isr_SPI.c **** *  the interrupt to the interrupt controller.
  90:Generated_Source\PSoC5/isr_SPI.c **** *  
  91:Generated_Source\PSoC5/isr_SPI.c **** *  When defining ISR functions, the CY_ISR and CY_ISR_PROTO macros should be 
  92:Generated_Source\PSoC5/isr_SPI.c **** *  used to provide consistent definition across compilers:
  93:Generated_Source\PSoC5/isr_SPI.c **** *  
  94:Generated_Source\PSoC5/isr_SPI.c **** *  Function definition example:
  95:Generated_Source\PSoC5/isr_SPI.c **** *   CY_ISR(MyISR)
  96:Generated_Source\PSoC5/isr_SPI.c **** *   {
  97:Generated_Source\PSoC5/isr_SPI.c **** *   }
  98:Generated_Source\PSoC5/isr_SPI.c **** *   Function prototype example:
  99:Generated_Source\PSoC5/isr_SPI.c **** *   CY_ISR_PROTO(MyISR);
 100:Generated_Source\PSoC5/isr_SPI.c **** *
 101:Generated_Source\PSoC5/isr_SPI.c **** * Parameters:  
 102:Generated_Source\PSoC5/isr_SPI.c **** *   address: Address of the ISR to set in the interrupt vector table.
 103:Generated_Source\PSoC5/isr_SPI.c **** *
 104:Generated_Source\PSoC5/isr_SPI.c **** * Return:
 105:Generated_Source\PSoC5/isr_SPI.c **** *   None
 106:Generated_Source\PSoC5/isr_SPI.c **** *
ARM GAS  C:\Users\z004c8dn\AppData\Local\Temp\ccZvNTSg.s 			page 4


 107:Generated_Source\PSoC5/isr_SPI.c **** *******************************************************************************/
 108:Generated_Source\PSoC5/isr_SPI.c **** void isr_SPI_StartEx(cyisraddress address)
 109:Generated_Source\PSoC5/isr_SPI.c **** {
  66              		.loc 1 109 0
  67              		.cfi_startproc
  68              		@ args = 0, pretend = 0, frame = 8
  69              		@ frame_needed = 1, uses_anonymous_args = 0
  70 0000 80B5     		push	{r7, lr}
  71              		.cfi_def_cfa_offset 8
  72              		.cfi_offset 7, -8
  73              		.cfi_offset 14, -4
  74 0002 82B0     		sub	sp, sp, #8
  75              		.cfi_def_cfa_offset 16
  76 0004 00AF     		add	r7, sp, #0
  77              		.cfi_def_cfa_register 7
  78 0006 7860     		str	r0, [r7, #4]
 110:Generated_Source\PSoC5/isr_SPI.c ****     /* For all we know the interrupt is active. */
 111:Generated_Source\PSoC5/isr_SPI.c ****     isr_SPI_Disable();
  79              		.loc 1 111 0
  80 0008 FFF7FEFF 		bl	isr_SPI_Disable
 112:Generated_Source\PSoC5/isr_SPI.c **** 
 113:Generated_Source\PSoC5/isr_SPI.c ****     /* Set the ISR to point to the isr_SPI Interrupt. */
 114:Generated_Source\PSoC5/isr_SPI.c ****     isr_SPI_SetVector(address);
  81              		.loc 1 114 0
  82 000c 7868     		ldr	r0, [r7, #4]
  83 000e FFF7FEFF 		bl	isr_SPI_SetVector
 115:Generated_Source\PSoC5/isr_SPI.c **** 
 116:Generated_Source\PSoC5/isr_SPI.c ****     /* Set the priority. */
 117:Generated_Source\PSoC5/isr_SPI.c ****     isr_SPI_SetPriority((uint8)isr_SPI_INTC_PRIOR_NUMBER);
  84              		.loc 1 117 0
  85 0012 0720     		movs	r0, #7
  86 0014 FFF7FEFF 		bl	isr_SPI_SetPriority
 118:Generated_Source\PSoC5/isr_SPI.c **** 
 119:Generated_Source\PSoC5/isr_SPI.c ****     /* Enable it. */
 120:Generated_Source\PSoC5/isr_SPI.c ****     isr_SPI_Enable();
  87              		.loc 1 120 0
  88 0018 FFF7FEFF 		bl	isr_SPI_Enable
 121:Generated_Source\PSoC5/isr_SPI.c **** }
  89              		.loc 1 121 0
  90 001c 00BF     		nop
  91 001e 0837     		adds	r7, r7, #8
  92              		.cfi_def_cfa_offset 8
  93 0020 BD46     		mov	sp, r7
  94              		.cfi_def_cfa_register 13
  95              		@ sp needed
  96 0022 80BD     		pop	{r7, pc}
  97              		.cfi_endproc
  98              	.LFE64:
  99              		.size	isr_SPI_StartEx, .-isr_SPI_StartEx
 100              		.section	.text.isr_SPI_Stop,"ax",%progbits
 101              		.align	2
 102              		.global	isr_SPI_Stop
 103              		.thumb
 104              		.thumb_func
 105              		.type	isr_SPI_Stop, %function
 106              	isr_SPI_Stop:
 107              	.LFB65:
ARM GAS  C:\Users\z004c8dn\AppData\Local\Temp\ccZvNTSg.s 			page 5


 122:Generated_Source\PSoC5/isr_SPI.c **** 
 123:Generated_Source\PSoC5/isr_SPI.c **** 
 124:Generated_Source\PSoC5/isr_SPI.c **** /*******************************************************************************
 125:Generated_Source\PSoC5/isr_SPI.c **** * Function Name: isr_SPI_Stop
 126:Generated_Source\PSoC5/isr_SPI.c **** ********************************************************************************
 127:Generated_Source\PSoC5/isr_SPI.c **** *
 128:Generated_Source\PSoC5/isr_SPI.c **** * Summary:
 129:Generated_Source\PSoC5/isr_SPI.c **** *   Disables and removes the interrupt.
 130:Generated_Source\PSoC5/isr_SPI.c **** *
 131:Generated_Source\PSoC5/isr_SPI.c **** * Parameters:  
 132:Generated_Source\PSoC5/isr_SPI.c **** *   None
 133:Generated_Source\PSoC5/isr_SPI.c **** *
 134:Generated_Source\PSoC5/isr_SPI.c **** * Return:
 135:Generated_Source\PSoC5/isr_SPI.c **** *   None
 136:Generated_Source\PSoC5/isr_SPI.c **** *
 137:Generated_Source\PSoC5/isr_SPI.c **** *******************************************************************************/
 138:Generated_Source\PSoC5/isr_SPI.c **** void isr_SPI_Stop(void)
 139:Generated_Source\PSoC5/isr_SPI.c **** {
 108              		.loc 1 139 0
 109              		.cfi_startproc
 110              		@ args = 0, pretend = 0, frame = 0
 111              		@ frame_needed = 1, uses_anonymous_args = 0
 112 0000 80B5     		push	{r7, lr}
 113              		.cfi_def_cfa_offset 8
 114              		.cfi_offset 7, -8
 115              		.cfi_offset 14, -4
 116 0002 00AF     		add	r7, sp, #0
 117              		.cfi_def_cfa_register 7
 140:Generated_Source\PSoC5/isr_SPI.c ****     /* Disable this interrupt. */
 141:Generated_Source\PSoC5/isr_SPI.c ****     isr_SPI_Disable();
 118              		.loc 1 141 0
 119 0004 FFF7FEFF 		bl	isr_SPI_Disable
 142:Generated_Source\PSoC5/isr_SPI.c **** 
 143:Generated_Source\PSoC5/isr_SPI.c ****     /* Set the ISR to point to the passive one. */
 144:Generated_Source\PSoC5/isr_SPI.c ****     isr_SPI_SetVector(&IntDefaultHandler);
 120              		.loc 1 144 0
 121 0008 0248     		ldr	r0, .L6
 122 000a FFF7FEFF 		bl	isr_SPI_SetVector
 145:Generated_Source\PSoC5/isr_SPI.c **** }
 123              		.loc 1 145 0
 124 000e 00BF     		nop
 125 0010 80BD     		pop	{r7, pc}
 126              	.L7:
 127 0012 00BF     		.align	2
 128              	.L6:
 129 0014 00000000 		.word	IntDefaultHandler
 130              		.cfi_endproc
 131              	.LFE65:
 132              		.size	isr_SPI_Stop, .-isr_SPI_Stop
 133              		.section	.rodata
 134              		.align	2
 135              	.LC0:
 136 0000 4649464F 		.ascii	"FIFO FULL\000"
 136      2046554C 
 136      4C00
 137              		.section	.text.isr_SPI_Interrupt,"ax",%progbits
 138              		.align	2
ARM GAS  C:\Users\z004c8dn\AppData\Local\Temp\ccZvNTSg.s 			page 6


 139              		.global	isr_SPI_Interrupt
 140              		.thumb
 141              		.thumb_func
 142              		.type	isr_SPI_Interrupt, %function
 143              	isr_SPI_Interrupt:
 144              	.LFB66:
 146:Generated_Source\PSoC5/isr_SPI.c **** 
 147:Generated_Source\PSoC5/isr_SPI.c **** 
 148:Generated_Source\PSoC5/isr_SPI.c **** /*******************************************************************************
 149:Generated_Source\PSoC5/isr_SPI.c **** * Function Name: isr_SPI_Interrupt
 150:Generated_Source\PSoC5/isr_SPI.c **** ********************************************************************************
 151:Generated_Source\PSoC5/isr_SPI.c **** *
 152:Generated_Source\PSoC5/isr_SPI.c **** * Summary:
 153:Generated_Source\PSoC5/isr_SPI.c **** *   The default Interrupt Service Routine for isr_SPI.
 154:Generated_Source\PSoC5/isr_SPI.c **** *
 155:Generated_Source\PSoC5/isr_SPI.c **** *   Add custom code between the coments to keep the next version of this file
 156:Generated_Source\PSoC5/isr_SPI.c **** *   from over writting your code.
 157:Generated_Source\PSoC5/isr_SPI.c **** *
 158:Generated_Source\PSoC5/isr_SPI.c **** * Parameters:  
 159:Generated_Source\PSoC5/isr_SPI.c **** *
 160:Generated_Source\PSoC5/isr_SPI.c **** * Return:
 161:Generated_Source\PSoC5/isr_SPI.c **** *   None
 162:Generated_Source\PSoC5/isr_SPI.c **** *
 163:Generated_Source\PSoC5/isr_SPI.c **** *******************************************************************************/
 164:Generated_Source\PSoC5/isr_SPI.c **** CY_ISR(isr_SPI_Interrupt)
 165:Generated_Source\PSoC5/isr_SPI.c **** {
 145              		.loc 1 165 0
 146              		.cfi_startproc
 147              		@ args = 0, pretend = 0, frame = 0
 148              		@ frame_needed = 1, uses_anonymous_args = 0
 149 0000 80B5     		push	{r7, lr}
 150              		.cfi_def_cfa_offset 8
 151              		.cfi_offset 7, -8
 152              		.cfi_offset 14, -4
 153 0002 00AF     		add	r7, sp, #0
 154              		.cfi_def_cfa_register 7
 166:Generated_Source\PSoC5/isr_SPI.c ****     #ifdef isr_SPI_INTERRUPT_INTERRUPT_CALLBACK
 167:Generated_Source\PSoC5/isr_SPI.c ****         isr_SPI_Interrupt_InterruptCallback();
 168:Generated_Source\PSoC5/isr_SPI.c ****     #endif /* isr_SPI_INTERRUPT_INTERRUPT_CALLBACK */ 
 169:Generated_Source\PSoC5/isr_SPI.c **** 
 170:Generated_Source\PSoC5/isr_SPI.c ****     /*  Place your Interrupt code here. */
 171:Generated_Source\PSoC5/isr_SPI.c ****     /* `#START isr_SPI_Interrupt` */
 172:Generated_Source\PSoC5/isr_SPI.c ****         
 173:Generated_Source\PSoC5/isr_SPI.c ****         CyGlobalIntDisable
 155              		.loc 1 173 0
 156              		.syntax unified
 157              	@ 173 "Generated_Source\PSoC5\isr_SPI.c" 1
 158 0004 72B6     		CPSID   i
 159              	@ 0 "" 2
 174:Generated_Source\PSoC5/isr_SPI.c ****         UART_1_PutString("FIFO FULL");
 160              		.loc 1 174 0
 161              		.thumb
 162              		.syntax unified
 163 0006 0448     		ldr	r0, .L9
 164 0008 FFF7FEFF 		bl	UART_1_PutString
 175:Generated_Source\PSoC5/isr_SPI.c ****         SPI_ClearRxBuffer();
 165              		.loc 1 175 0
ARM GAS  C:\Users\z004c8dn\AppData\Local\Temp\ccZvNTSg.s 			page 7


 166 000c FFF7FEFF 		bl	SPI_ClearRxBuffer
 176:Generated_Source\PSoC5/isr_SPI.c ****         CyGlobalIntEnable
 167              		.loc 1 176 0
 168              		.syntax unified
 169              	@ 176 "Generated_Source\PSoC5\isr_SPI.c" 1
 170 0010 62B6     		CPSIE   i
 171              	@ 0 "" 2
 177:Generated_Source\PSoC5/isr_SPI.c ****     /* `#END` */
 178:Generated_Source\PSoC5/isr_SPI.c **** }
 172              		.loc 1 178 0
 173              		.thumb
 174              		.syntax unified
 175 0012 00BF     		nop
 176 0014 80BD     		pop	{r7, pc}
 177              	.L10:
 178 0016 00BF     		.align	2
 179              	.L9:
 180 0018 00000000 		.word	.LC0
 181              		.cfi_endproc
 182              	.LFE66:
 183              		.size	isr_SPI_Interrupt, .-isr_SPI_Interrupt
 184              		.section	.text.isr_SPI_SetVector,"ax",%progbits
 185              		.align	2
 186              		.global	isr_SPI_SetVector
 187              		.thumb
 188              		.thumb_func
 189              		.type	isr_SPI_SetVector, %function
 190              	isr_SPI_SetVector:
 191              	.LFB67:
 179:Generated_Source\PSoC5/isr_SPI.c **** 
 180:Generated_Source\PSoC5/isr_SPI.c **** 
 181:Generated_Source\PSoC5/isr_SPI.c **** /*******************************************************************************
 182:Generated_Source\PSoC5/isr_SPI.c **** * Function Name: isr_SPI_SetVector
 183:Generated_Source\PSoC5/isr_SPI.c **** ********************************************************************************
 184:Generated_Source\PSoC5/isr_SPI.c **** *
 185:Generated_Source\PSoC5/isr_SPI.c **** * Summary:
 186:Generated_Source\PSoC5/isr_SPI.c **** *   Change the ISR vector for the Interrupt. Note calling isr_SPI_Start
 187:Generated_Source\PSoC5/isr_SPI.c **** *   will override any effect this method would have had. To set the vector 
 188:Generated_Source\PSoC5/isr_SPI.c **** *   before the component has been started use isr_SPI_StartEx instead.
 189:Generated_Source\PSoC5/isr_SPI.c **** * 
 190:Generated_Source\PSoC5/isr_SPI.c **** *   When defining ISR functions, the CY_ISR and CY_ISR_PROTO macros should be 
 191:Generated_Source\PSoC5/isr_SPI.c **** *   used to provide consistent definition across compilers:
 192:Generated_Source\PSoC5/isr_SPI.c **** *
 193:Generated_Source\PSoC5/isr_SPI.c **** *   Function definition example:
 194:Generated_Source\PSoC5/isr_SPI.c **** *   CY_ISR(MyISR)
 195:Generated_Source\PSoC5/isr_SPI.c **** *   {
 196:Generated_Source\PSoC5/isr_SPI.c **** *   }
 197:Generated_Source\PSoC5/isr_SPI.c **** *
 198:Generated_Source\PSoC5/isr_SPI.c **** *   Function prototype example:
 199:Generated_Source\PSoC5/isr_SPI.c **** *     CY_ISR_PROTO(MyISR);
 200:Generated_Source\PSoC5/isr_SPI.c **** *
 201:Generated_Source\PSoC5/isr_SPI.c **** * Parameters:
 202:Generated_Source\PSoC5/isr_SPI.c **** *   address: Address of the ISR to set in the interrupt vector table.
 203:Generated_Source\PSoC5/isr_SPI.c **** *
 204:Generated_Source\PSoC5/isr_SPI.c **** * Return:
 205:Generated_Source\PSoC5/isr_SPI.c **** *   None
 206:Generated_Source\PSoC5/isr_SPI.c **** *
ARM GAS  C:\Users\z004c8dn\AppData\Local\Temp\ccZvNTSg.s 			page 8


 207:Generated_Source\PSoC5/isr_SPI.c **** *******************************************************************************/
 208:Generated_Source\PSoC5/isr_SPI.c **** void isr_SPI_SetVector(cyisraddress address)
 209:Generated_Source\PSoC5/isr_SPI.c **** {
 192              		.loc 1 209 0
 193              		.cfi_startproc
 194              		@ args = 0, pretend = 0, frame = 16
 195              		@ frame_needed = 1, uses_anonymous_args = 0
 196              		@ link register save eliminated.
 197 0000 80B4     		push	{r7}
 198              		.cfi_def_cfa_offset 4
 199              		.cfi_offset 7, -4
 200 0002 85B0     		sub	sp, sp, #20
 201              		.cfi_def_cfa_offset 24
 202 0004 00AF     		add	r7, sp, #0
 203              		.cfi_def_cfa_register 7
 204 0006 7860     		str	r0, [r7, #4]
 210:Generated_Source\PSoC5/isr_SPI.c ****     cyisraddress * ramVectorTable;
 211:Generated_Source\PSoC5/isr_SPI.c **** 
 212:Generated_Source\PSoC5/isr_SPI.c ****     ramVectorTable = (cyisraddress *) *CYINT_VECT_TABLE;
 205              		.loc 1 212 0
 206 0008 054B     		ldr	r3, .L12
 207 000a 1B68     		ldr	r3, [r3]
 208 000c FB60     		str	r3, [r7, #12]
 213:Generated_Source\PSoC5/isr_SPI.c **** 
 214:Generated_Source\PSoC5/isr_SPI.c ****     ramVectorTable[CYINT_IRQ_BASE + (uint32)isr_SPI__INTC_NUMBER] = address;
 209              		.loc 1 214 0
 210 000e FB68     		ldr	r3, [r7, #12]
 211 0010 4433     		adds	r3, r3, #68
 212 0012 7A68     		ldr	r2, [r7, #4]
 213 0014 1A60     		str	r2, [r3]
 215:Generated_Source\PSoC5/isr_SPI.c **** }
 214              		.loc 1 215 0
 215 0016 00BF     		nop
 216 0018 1437     		adds	r7, r7, #20
 217              		.cfi_def_cfa_offset 4
 218 001a BD46     		mov	sp, r7
 219              		.cfi_def_cfa_register 13
 220              		@ sp needed
 221 001c 80BC     		pop	{r7}
 222              		.cfi_restore 7
 223              		.cfi_def_cfa_offset 0
 224 001e 7047     		bx	lr
 225              	.L13:
 226              		.align	2
 227              	.L12:
 228 0020 08ED00E0 		.word	-536810232
 229              		.cfi_endproc
 230              	.LFE67:
 231              		.size	isr_SPI_SetVector, .-isr_SPI_SetVector
 232              		.section	.text.isr_SPI_GetVector,"ax",%progbits
 233              		.align	2
 234              		.global	isr_SPI_GetVector
 235              		.thumb
 236              		.thumb_func
 237              		.type	isr_SPI_GetVector, %function
 238              	isr_SPI_GetVector:
 239              	.LFB68:
ARM GAS  C:\Users\z004c8dn\AppData\Local\Temp\ccZvNTSg.s 			page 9


 216:Generated_Source\PSoC5/isr_SPI.c **** 
 217:Generated_Source\PSoC5/isr_SPI.c **** 
 218:Generated_Source\PSoC5/isr_SPI.c **** /*******************************************************************************
 219:Generated_Source\PSoC5/isr_SPI.c **** * Function Name: isr_SPI_GetVector
 220:Generated_Source\PSoC5/isr_SPI.c **** ********************************************************************************
 221:Generated_Source\PSoC5/isr_SPI.c **** *
 222:Generated_Source\PSoC5/isr_SPI.c **** * Summary:
 223:Generated_Source\PSoC5/isr_SPI.c **** *   Gets the "address" of the current ISR vector for the Interrupt.
 224:Generated_Source\PSoC5/isr_SPI.c **** *
 225:Generated_Source\PSoC5/isr_SPI.c **** * Parameters:
 226:Generated_Source\PSoC5/isr_SPI.c **** *   None
 227:Generated_Source\PSoC5/isr_SPI.c **** *
 228:Generated_Source\PSoC5/isr_SPI.c **** * Return:
 229:Generated_Source\PSoC5/isr_SPI.c **** *   Address of the ISR in the interrupt vector table.
 230:Generated_Source\PSoC5/isr_SPI.c **** *
 231:Generated_Source\PSoC5/isr_SPI.c **** *******************************************************************************/
 232:Generated_Source\PSoC5/isr_SPI.c **** cyisraddress isr_SPI_GetVector(void)
 233:Generated_Source\PSoC5/isr_SPI.c **** {
 240              		.loc 1 233 0
 241              		.cfi_startproc
 242              		@ args = 0, pretend = 0, frame = 8
 243              		@ frame_needed = 1, uses_anonymous_args = 0
 244              		@ link register save eliminated.
 245 0000 80B4     		push	{r7}
 246              		.cfi_def_cfa_offset 4
 247              		.cfi_offset 7, -4
 248 0002 83B0     		sub	sp, sp, #12
 249              		.cfi_def_cfa_offset 16
 250 0004 00AF     		add	r7, sp, #0
 251              		.cfi_def_cfa_register 7
 234:Generated_Source\PSoC5/isr_SPI.c ****     cyisraddress * ramVectorTable;
 235:Generated_Source\PSoC5/isr_SPI.c **** 
 236:Generated_Source\PSoC5/isr_SPI.c ****     ramVectorTable = (cyisraddress *) *CYINT_VECT_TABLE;
 252              		.loc 1 236 0
 253 0006 054B     		ldr	r3, .L16
 254 0008 1B68     		ldr	r3, [r3]
 255 000a 7B60     		str	r3, [r7, #4]
 237:Generated_Source\PSoC5/isr_SPI.c **** 
 238:Generated_Source\PSoC5/isr_SPI.c ****     return ramVectorTable[CYINT_IRQ_BASE + (uint32)isr_SPI__INTC_NUMBER];
 256              		.loc 1 238 0
 257 000c 7B68     		ldr	r3, [r7, #4]
 258 000e 5B6C     		ldr	r3, [r3, #68]
 239:Generated_Source\PSoC5/isr_SPI.c **** }
 259              		.loc 1 239 0
 260 0010 1846     		mov	r0, r3
 261 0012 0C37     		adds	r7, r7, #12
 262              		.cfi_def_cfa_offset 4
 263 0014 BD46     		mov	sp, r7
 264              		.cfi_def_cfa_register 13
 265              		@ sp needed
 266 0016 80BC     		pop	{r7}
 267              		.cfi_restore 7
 268              		.cfi_def_cfa_offset 0
 269 0018 7047     		bx	lr
 270              	.L17:
 271 001a 00BF     		.align	2
 272              	.L16:
ARM GAS  C:\Users\z004c8dn\AppData\Local\Temp\ccZvNTSg.s 			page 10


 273 001c 08ED00E0 		.word	-536810232
 274              		.cfi_endproc
 275              	.LFE68:
 276              		.size	isr_SPI_GetVector, .-isr_SPI_GetVector
 277              		.section	.text.isr_SPI_SetPriority,"ax",%progbits
 278              		.align	2
 279              		.global	isr_SPI_SetPriority
 280              		.thumb
 281              		.thumb_func
 282              		.type	isr_SPI_SetPriority, %function
 283              	isr_SPI_SetPriority:
 284              	.LFB69:
 240:Generated_Source\PSoC5/isr_SPI.c **** 
 241:Generated_Source\PSoC5/isr_SPI.c **** 
 242:Generated_Source\PSoC5/isr_SPI.c **** /*******************************************************************************
 243:Generated_Source\PSoC5/isr_SPI.c **** * Function Name: isr_SPI_SetPriority
 244:Generated_Source\PSoC5/isr_SPI.c **** ********************************************************************************
 245:Generated_Source\PSoC5/isr_SPI.c **** *
 246:Generated_Source\PSoC5/isr_SPI.c **** * Summary:
 247:Generated_Source\PSoC5/isr_SPI.c **** *   Sets the Priority of the Interrupt. 
 248:Generated_Source\PSoC5/isr_SPI.c **** *
 249:Generated_Source\PSoC5/isr_SPI.c **** *   Note calling isr_SPI_Start or isr_SPI_StartEx will 
 250:Generated_Source\PSoC5/isr_SPI.c **** *   override any effect this API would have had. This API should only be called
 251:Generated_Source\PSoC5/isr_SPI.c **** *   after isr_SPI_Start or isr_SPI_StartEx has been called. 
 252:Generated_Source\PSoC5/isr_SPI.c **** *   To set the initial priority for the component, use the Design-Wide Resources
 253:Generated_Source\PSoC5/isr_SPI.c **** *   Interrupt Editor.
 254:Generated_Source\PSoC5/isr_SPI.c **** *
 255:Generated_Source\PSoC5/isr_SPI.c **** *   Note This API has no effect on Non-maskable interrupt NMI).
 256:Generated_Source\PSoC5/isr_SPI.c **** *
 257:Generated_Source\PSoC5/isr_SPI.c **** * Parameters:
 258:Generated_Source\PSoC5/isr_SPI.c **** *   priority: Priority of the interrupt, 0 being the highest priority
 259:Generated_Source\PSoC5/isr_SPI.c **** *             PSoC 3 and PSoC 5LP: Priority is from 0 to 7.
 260:Generated_Source\PSoC5/isr_SPI.c **** *             PSoC 4: Priority is from 0 to 3.
 261:Generated_Source\PSoC5/isr_SPI.c **** *
 262:Generated_Source\PSoC5/isr_SPI.c **** * Return:
 263:Generated_Source\PSoC5/isr_SPI.c **** *   None
 264:Generated_Source\PSoC5/isr_SPI.c **** *
 265:Generated_Source\PSoC5/isr_SPI.c **** *******************************************************************************/
 266:Generated_Source\PSoC5/isr_SPI.c **** void isr_SPI_SetPriority(uint8 priority)
 267:Generated_Source\PSoC5/isr_SPI.c **** {
 285              		.loc 1 267 0
 286              		.cfi_startproc
 287              		@ args = 0, pretend = 0, frame = 8
 288              		@ frame_needed = 1, uses_anonymous_args = 0
 289              		@ link register save eliminated.
 290 0000 80B4     		push	{r7}
 291              		.cfi_def_cfa_offset 4
 292              		.cfi_offset 7, -4
 293 0002 83B0     		sub	sp, sp, #12
 294              		.cfi_def_cfa_offset 16
 295 0004 00AF     		add	r7, sp, #0
 296              		.cfi_def_cfa_register 7
 297 0006 0346     		mov	r3, r0
 298 0008 FB71     		strb	r3, [r7, #7]
 268:Generated_Source\PSoC5/isr_SPI.c ****     *isr_SPI_INTC_PRIOR = priority << 5;
 299              		.loc 1 268 0
 300 000a 054A     		ldr	r2, .L19
ARM GAS  C:\Users\z004c8dn\AppData\Local\Temp\ccZvNTSg.s 			page 11


 301 000c FB79     		ldrb	r3, [r7, #7]
 302 000e 5B01     		lsls	r3, r3, #5
 303 0010 DBB2     		uxtb	r3, r3
 304 0012 1370     		strb	r3, [r2]
 269:Generated_Source\PSoC5/isr_SPI.c **** }
 305              		.loc 1 269 0
 306 0014 00BF     		nop
 307 0016 0C37     		adds	r7, r7, #12
 308              		.cfi_def_cfa_offset 4
 309 0018 BD46     		mov	sp, r7
 310              		.cfi_def_cfa_register 13
 311              		@ sp needed
 312 001a 80BC     		pop	{r7}
 313              		.cfi_restore 7
 314              		.cfi_def_cfa_offset 0
 315 001c 7047     		bx	lr
 316              	.L20:
 317 001e 00BF     		.align	2
 318              	.L19:
 319 0020 01E400E0 		.word	-536812543
 320              		.cfi_endproc
 321              	.LFE69:
 322              		.size	isr_SPI_SetPriority, .-isr_SPI_SetPriority
 323              		.section	.text.isr_SPI_GetPriority,"ax",%progbits
 324              		.align	2
 325              		.global	isr_SPI_GetPriority
 326              		.thumb
 327              		.thumb_func
 328              		.type	isr_SPI_GetPriority, %function
 329              	isr_SPI_GetPriority:
 330              	.LFB70:
 270:Generated_Source\PSoC5/isr_SPI.c **** 
 271:Generated_Source\PSoC5/isr_SPI.c **** 
 272:Generated_Source\PSoC5/isr_SPI.c **** /*******************************************************************************
 273:Generated_Source\PSoC5/isr_SPI.c **** * Function Name: isr_SPI_GetPriority
 274:Generated_Source\PSoC5/isr_SPI.c **** ********************************************************************************
 275:Generated_Source\PSoC5/isr_SPI.c **** *
 276:Generated_Source\PSoC5/isr_SPI.c **** * Summary:
 277:Generated_Source\PSoC5/isr_SPI.c **** *   Gets the Priority of the Interrupt.
 278:Generated_Source\PSoC5/isr_SPI.c **** *
 279:Generated_Source\PSoC5/isr_SPI.c **** * Parameters:
 280:Generated_Source\PSoC5/isr_SPI.c **** *   None
 281:Generated_Source\PSoC5/isr_SPI.c **** *
 282:Generated_Source\PSoC5/isr_SPI.c **** * Return:
 283:Generated_Source\PSoC5/isr_SPI.c **** *   Priority of the interrupt, 0 being the highest priority
 284:Generated_Source\PSoC5/isr_SPI.c **** *    PSoC 3 and PSoC 5LP: Priority is from 0 to 7.
 285:Generated_Source\PSoC5/isr_SPI.c **** *    PSoC 4: Priority is from 0 to 3.
 286:Generated_Source\PSoC5/isr_SPI.c **** *
 287:Generated_Source\PSoC5/isr_SPI.c **** *******************************************************************************/
 288:Generated_Source\PSoC5/isr_SPI.c **** uint8 isr_SPI_GetPriority(void)
 289:Generated_Source\PSoC5/isr_SPI.c **** {
 331              		.loc 1 289 0
 332              		.cfi_startproc
 333              		@ args = 0, pretend = 0, frame = 8
 334              		@ frame_needed = 1, uses_anonymous_args = 0
 335              		@ link register save eliminated.
 336 0000 80B4     		push	{r7}
ARM GAS  C:\Users\z004c8dn\AppData\Local\Temp\ccZvNTSg.s 			page 12


 337              		.cfi_def_cfa_offset 4
 338              		.cfi_offset 7, -4
 339 0002 83B0     		sub	sp, sp, #12
 340              		.cfi_def_cfa_offset 16
 341 0004 00AF     		add	r7, sp, #0
 342              		.cfi_def_cfa_register 7
 290:Generated_Source\PSoC5/isr_SPI.c ****     uint8 priority;
 291:Generated_Source\PSoC5/isr_SPI.c **** 
 292:Generated_Source\PSoC5/isr_SPI.c **** 
 293:Generated_Source\PSoC5/isr_SPI.c ****     priority = *isr_SPI_INTC_PRIOR >> 5;
 343              		.loc 1 293 0
 344 0006 054B     		ldr	r3, .L23
 345 0008 1B78     		ldrb	r3, [r3]
 346 000a DBB2     		uxtb	r3, r3
 347 000c 5B09     		lsrs	r3, r3, #5
 348 000e FB71     		strb	r3, [r7, #7]
 294:Generated_Source\PSoC5/isr_SPI.c **** 
 295:Generated_Source\PSoC5/isr_SPI.c ****     return priority;
 349              		.loc 1 295 0
 350 0010 FB79     		ldrb	r3, [r7, #7]	@ zero_extendqisi2
 296:Generated_Source\PSoC5/isr_SPI.c **** }
 351              		.loc 1 296 0
 352 0012 1846     		mov	r0, r3
 353 0014 0C37     		adds	r7, r7, #12
 354              		.cfi_def_cfa_offset 4
 355 0016 BD46     		mov	sp, r7
 356              		.cfi_def_cfa_register 13
 357              		@ sp needed
 358 0018 80BC     		pop	{r7}
 359              		.cfi_restore 7
 360              		.cfi_def_cfa_offset 0
 361 001a 7047     		bx	lr
 362              	.L24:
 363              		.align	2
 364              	.L23:
 365 001c 01E400E0 		.word	-536812543
 366              		.cfi_endproc
 367              	.LFE70:
 368              		.size	isr_SPI_GetPriority, .-isr_SPI_GetPriority
 369              		.section	.text.isr_SPI_Enable,"ax",%progbits
 370              		.align	2
 371              		.global	isr_SPI_Enable
 372              		.thumb
 373              		.thumb_func
 374              		.type	isr_SPI_Enable, %function
 375              	isr_SPI_Enable:
 376              	.LFB71:
 297:Generated_Source\PSoC5/isr_SPI.c **** 
 298:Generated_Source\PSoC5/isr_SPI.c **** 
 299:Generated_Source\PSoC5/isr_SPI.c **** /*******************************************************************************
 300:Generated_Source\PSoC5/isr_SPI.c **** * Function Name: isr_SPI_Enable
 301:Generated_Source\PSoC5/isr_SPI.c **** ********************************************************************************
 302:Generated_Source\PSoC5/isr_SPI.c **** *
 303:Generated_Source\PSoC5/isr_SPI.c **** * Summary:
 304:Generated_Source\PSoC5/isr_SPI.c **** *   Enables the interrupt to the interrupt controller. Do not call this function
 305:Generated_Source\PSoC5/isr_SPI.c **** *   unless ISR_Start() has been called or the functionality of the ISR_Start() 
 306:Generated_Source\PSoC5/isr_SPI.c **** *   function, which sets the vector and the priority, has been called.
ARM GAS  C:\Users\z004c8dn\AppData\Local\Temp\ccZvNTSg.s 			page 13


 307:Generated_Source\PSoC5/isr_SPI.c **** *
 308:Generated_Source\PSoC5/isr_SPI.c **** * Parameters:
 309:Generated_Source\PSoC5/isr_SPI.c **** *   None
 310:Generated_Source\PSoC5/isr_SPI.c **** *
 311:Generated_Source\PSoC5/isr_SPI.c **** * Return:
 312:Generated_Source\PSoC5/isr_SPI.c **** *   None
 313:Generated_Source\PSoC5/isr_SPI.c **** *
 314:Generated_Source\PSoC5/isr_SPI.c **** *******************************************************************************/
 315:Generated_Source\PSoC5/isr_SPI.c **** void isr_SPI_Enable(void)
 316:Generated_Source\PSoC5/isr_SPI.c **** {
 377              		.loc 1 316 0
 378              		.cfi_startproc
 379              		@ args = 0, pretend = 0, frame = 0
 380              		@ frame_needed = 1, uses_anonymous_args = 0
 381              		@ link register save eliminated.
 382 0000 80B4     		push	{r7}
 383              		.cfi_def_cfa_offset 4
 384              		.cfi_offset 7, -4
 385 0002 00AF     		add	r7, sp, #0
 386              		.cfi_def_cfa_register 7
 317:Generated_Source\PSoC5/isr_SPI.c ****     /* Enable the general interrupt. */
 318:Generated_Source\PSoC5/isr_SPI.c ****     *isr_SPI_INTC_SET_EN = isr_SPI__INTC_MASK;
 387              		.loc 1 318 0
 388 0004 034B     		ldr	r3, .L26
 389 0006 0222     		movs	r2, #2
 390 0008 1A60     		str	r2, [r3]
 319:Generated_Source\PSoC5/isr_SPI.c **** }
 391              		.loc 1 319 0
 392 000a 00BF     		nop
 393 000c BD46     		mov	sp, r7
 394              		.cfi_def_cfa_register 13
 395              		@ sp needed
 396 000e 80BC     		pop	{r7}
 397              		.cfi_restore 7
 398              		.cfi_def_cfa_offset 0
 399 0010 7047     		bx	lr
 400              	.L27:
 401 0012 00BF     		.align	2
 402              	.L26:
 403 0014 00E100E0 		.word	-536813312
 404              		.cfi_endproc
 405              	.LFE71:
 406              		.size	isr_SPI_Enable, .-isr_SPI_Enable
 407              		.section	.text.isr_SPI_GetState,"ax",%progbits
 408              		.align	2
 409              		.global	isr_SPI_GetState
 410              		.thumb
 411              		.thumb_func
 412              		.type	isr_SPI_GetState, %function
 413              	isr_SPI_GetState:
 414              	.LFB72:
 320:Generated_Source\PSoC5/isr_SPI.c **** 
 321:Generated_Source\PSoC5/isr_SPI.c **** 
 322:Generated_Source\PSoC5/isr_SPI.c **** /*******************************************************************************
 323:Generated_Source\PSoC5/isr_SPI.c **** * Function Name: isr_SPI_GetState
 324:Generated_Source\PSoC5/isr_SPI.c **** ********************************************************************************
 325:Generated_Source\PSoC5/isr_SPI.c **** *
ARM GAS  C:\Users\z004c8dn\AppData\Local\Temp\ccZvNTSg.s 			page 14


 326:Generated_Source\PSoC5/isr_SPI.c **** * Summary:
 327:Generated_Source\PSoC5/isr_SPI.c **** *   Gets the state (enabled, disabled) of the Interrupt.
 328:Generated_Source\PSoC5/isr_SPI.c **** *
 329:Generated_Source\PSoC5/isr_SPI.c **** * Parameters:
 330:Generated_Source\PSoC5/isr_SPI.c **** *   None
 331:Generated_Source\PSoC5/isr_SPI.c **** *
 332:Generated_Source\PSoC5/isr_SPI.c **** * Return:
 333:Generated_Source\PSoC5/isr_SPI.c **** *   1 if enabled, 0 if disabled.
 334:Generated_Source\PSoC5/isr_SPI.c **** *
 335:Generated_Source\PSoC5/isr_SPI.c **** *******************************************************************************/
 336:Generated_Source\PSoC5/isr_SPI.c **** uint8 isr_SPI_GetState(void)
 337:Generated_Source\PSoC5/isr_SPI.c **** {
 415              		.loc 1 337 0
 416              		.cfi_startproc
 417              		@ args = 0, pretend = 0, frame = 0
 418              		@ frame_needed = 1, uses_anonymous_args = 0
 419              		@ link register save eliminated.
 420 0000 80B4     		push	{r7}
 421              		.cfi_def_cfa_offset 4
 422              		.cfi_offset 7, -4
 423 0002 00AF     		add	r7, sp, #0
 424              		.cfi_def_cfa_register 7
 338:Generated_Source\PSoC5/isr_SPI.c ****     /* Get the state of the general interrupt. */
 339:Generated_Source\PSoC5/isr_SPI.c ****     return ((*isr_SPI_INTC_SET_EN & (uint32)isr_SPI__INTC_MASK) != 0u) ? 1u:0u;
 425              		.loc 1 339 0
 426 0004 064B     		ldr	r3, .L32
 427 0006 1B68     		ldr	r3, [r3]
 428 0008 03F00203 		and	r3, r3, #2
 429 000c 002B     		cmp	r3, #0
 430 000e 01D0     		beq	.L29
 431              		.loc 1 339 0 is_stmt 0 discriminator 1
 432 0010 0123     		movs	r3, #1
 433 0012 00E0     		b	.L30
 434              	.L29:
 435              		.loc 1 339 0 discriminator 2
 436 0014 0023     		movs	r3, #0
 437              	.L30:
 340:Generated_Source\PSoC5/isr_SPI.c **** }
 438              		.loc 1 340 0 is_stmt 1 discriminator 4
 439 0016 1846     		mov	r0, r3
 440 0018 BD46     		mov	sp, r7
 441              		.cfi_def_cfa_register 13
 442              		@ sp needed
 443 001a 80BC     		pop	{r7}
 444              		.cfi_restore 7
 445              		.cfi_def_cfa_offset 0
 446 001c 7047     		bx	lr
 447              	.L33:
 448 001e 00BF     		.align	2
 449              	.L32:
 450 0020 00E100E0 		.word	-536813312
 451              		.cfi_endproc
 452              	.LFE72:
 453              		.size	isr_SPI_GetState, .-isr_SPI_GetState
 454              		.section	.text.isr_SPI_Disable,"ax",%progbits
 455              		.align	2
 456              		.global	isr_SPI_Disable
ARM GAS  C:\Users\z004c8dn\AppData\Local\Temp\ccZvNTSg.s 			page 15


 457              		.thumb
 458              		.thumb_func
 459              		.type	isr_SPI_Disable, %function
 460              	isr_SPI_Disable:
 461              	.LFB73:
 341:Generated_Source\PSoC5/isr_SPI.c **** 
 342:Generated_Source\PSoC5/isr_SPI.c **** 
 343:Generated_Source\PSoC5/isr_SPI.c **** /*******************************************************************************
 344:Generated_Source\PSoC5/isr_SPI.c **** * Function Name: isr_SPI_Disable
 345:Generated_Source\PSoC5/isr_SPI.c **** ********************************************************************************
 346:Generated_Source\PSoC5/isr_SPI.c **** *
 347:Generated_Source\PSoC5/isr_SPI.c **** * Summary:
 348:Generated_Source\PSoC5/isr_SPI.c **** *   Disables the Interrupt in the interrupt controller.
 349:Generated_Source\PSoC5/isr_SPI.c **** *
 350:Generated_Source\PSoC5/isr_SPI.c **** * Parameters:
 351:Generated_Source\PSoC5/isr_SPI.c **** *   None
 352:Generated_Source\PSoC5/isr_SPI.c **** *
 353:Generated_Source\PSoC5/isr_SPI.c **** * Return:
 354:Generated_Source\PSoC5/isr_SPI.c **** *   None
 355:Generated_Source\PSoC5/isr_SPI.c **** *
 356:Generated_Source\PSoC5/isr_SPI.c **** *******************************************************************************/
 357:Generated_Source\PSoC5/isr_SPI.c **** void isr_SPI_Disable(void)
 358:Generated_Source\PSoC5/isr_SPI.c **** {
 462              		.loc 1 358 0
 463              		.cfi_startproc
 464              		@ args = 0, pretend = 0, frame = 0
 465              		@ frame_needed = 1, uses_anonymous_args = 0
 466              		@ link register save eliminated.
 467 0000 80B4     		push	{r7}
 468              		.cfi_def_cfa_offset 4
 469              		.cfi_offset 7, -4
 470 0002 00AF     		add	r7, sp, #0
 471              		.cfi_def_cfa_register 7
 359:Generated_Source\PSoC5/isr_SPI.c ****     /* Disable the general interrupt. */
 360:Generated_Source\PSoC5/isr_SPI.c ****     *isr_SPI_INTC_CLR_EN = isr_SPI__INTC_MASK;
 472              		.loc 1 360 0
 473 0004 034B     		ldr	r3, .L35
 474 0006 0222     		movs	r2, #2
 475 0008 1A60     		str	r2, [r3]
 361:Generated_Source\PSoC5/isr_SPI.c **** }
 476              		.loc 1 361 0
 477 000a 00BF     		nop
 478 000c BD46     		mov	sp, r7
 479              		.cfi_def_cfa_register 13
 480              		@ sp needed
 481 000e 80BC     		pop	{r7}
 482              		.cfi_restore 7
 483              		.cfi_def_cfa_offset 0
 484 0010 7047     		bx	lr
 485              	.L36:
 486 0012 00BF     		.align	2
 487              	.L35:
 488 0014 80E100E0 		.word	-536813184
 489              		.cfi_endproc
 490              	.LFE73:
 491              		.size	isr_SPI_Disable, .-isr_SPI_Disable
 492              		.section	.text.isr_SPI_SetPending,"ax",%progbits
ARM GAS  C:\Users\z004c8dn\AppData\Local\Temp\ccZvNTSg.s 			page 16


 493              		.align	2
 494              		.global	isr_SPI_SetPending
 495              		.thumb
 496              		.thumb_func
 497              		.type	isr_SPI_SetPending, %function
 498              	isr_SPI_SetPending:
 499              	.LFB74:
 362:Generated_Source\PSoC5/isr_SPI.c **** 
 363:Generated_Source\PSoC5/isr_SPI.c **** 
 364:Generated_Source\PSoC5/isr_SPI.c **** /*******************************************************************************
 365:Generated_Source\PSoC5/isr_SPI.c **** * Function Name: isr_SPI_SetPending
 366:Generated_Source\PSoC5/isr_SPI.c **** ********************************************************************************
 367:Generated_Source\PSoC5/isr_SPI.c **** *
 368:Generated_Source\PSoC5/isr_SPI.c **** * Summary:
 369:Generated_Source\PSoC5/isr_SPI.c **** *   Causes the Interrupt to enter the pending state, a software method of
 370:Generated_Source\PSoC5/isr_SPI.c **** *   generating the interrupt.
 371:Generated_Source\PSoC5/isr_SPI.c **** *
 372:Generated_Source\PSoC5/isr_SPI.c **** * Parameters:
 373:Generated_Source\PSoC5/isr_SPI.c **** *   None
 374:Generated_Source\PSoC5/isr_SPI.c **** *
 375:Generated_Source\PSoC5/isr_SPI.c **** * Return:
 376:Generated_Source\PSoC5/isr_SPI.c **** *   None
 377:Generated_Source\PSoC5/isr_SPI.c **** *
 378:Generated_Source\PSoC5/isr_SPI.c **** * Side Effects:
 379:Generated_Source\PSoC5/isr_SPI.c **** *   If interrupts are enabled and the interrupt is set up properly, the ISR is
 380:Generated_Source\PSoC5/isr_SPI.c **** *   entered (depending on the priority of this interrupt and other pending 
 381:Generated_Source\PSoC5/isr_SPI.c **** *   interrupts).
 382:Generated_Source\PSoC5/isr_SPI.c **** *
 383:Generated_Source\PSoC5/isr_SPI.c **** *******************************************************************************/
 384:Generated_Source\PSoC5/isr_SPI.c **** void isr_SPI_SetPending(void)
 385:Generated_Source\PSoC5/isr_SPI.c **** {
 500              		.loc 1 385 0
 501              		.cfi_startproc
 502              		@ args = 0, pretend = 0, frame = 0
 503              		@ frame_needed = 1, uses_anonymous_args = 0
 504              		@ link register save eliminated.
 505 0000 80B4     		push	{r7}
 506              		.cfi_def_cfa_offset 4
 507              		.cfi_offset 7, -4
 508 0002 00AF     		add	r7, sp, #0
 509              		.cfi_def_cfa_register 7
 386:Generated_Source\PSoC5/isr_SPI.c ****     *isr_SPI_INTC_SET_PD = isr_SPI__INTC_MASK;
 510              		.loc 1 386 0
 511 0004 034B     		ldr	r3, .L38
 512 0006 0222     		movs	r2, #2
 513 0008 1A60     		str	r2, [r3]
 387:Generated_Source\PSoC5/isr_SPI.c **** }
 514              		.loc 1 387 0
 515 000a 00BF     		nop
 516 000c BD46     		mov	sp, r7
 517              		.cfi_def_cfa_register 13
 518              		@ sp needed
 519 000e 80BC     		pop	{r7}
 520              		.cfi_restore 7
 521              		.cfi_def_cfa_offset 0
 522 0010 7047     		bx	lr
 523              	.L39:
ARM GAS  C:\Users\z004c8dn\AppData\Local\Temp\ccZvNTSg.s 			page 17


 524 0012 00BF     		.align	2
 525              	.L38:
 526 0014 00E200E0 		.word	-536813056
 527              		.cfi_endproc
 528              	.LFE74:
 529              		.size	isr_SPI_SetPending, .-isr_SPI_SetPending
 530              		.section	.text.isr_SPI_ClearPending,"ax",%progbits
 531              		.align	2
 532              		.global	isr_SPI_ClearPending
 533              		.thumb
 534              		.thumb_func
 535              		.type	isr_SPI_ClearPending, %function
 536              	isr_SPI_ClearPending:
 537              	.LFB75:
 388:Generated_Source\PSoC5/isr_SPI.c **** 
 389:Generated_Source\PSoC5/isr_SPI.c **** 
 390:Generated_Source\PSoC5/isr_SPI.c **** /*******************************************************************************
 391:Generated_Source\PSoC5/isr_SPI.c **** * Function Name: isr_SPI_ClearPending
 392:Generated_Source\PSoC5/isr_SPI.c **** ********************************************************************************
 393:Generated_Source\PSoC5/isr_SPI.c **** *
 394:Generated_Source\PSoC5/isr_SPI.c **** * Summary:
 395:Generated_Source\PSoC5/isr_SPI.c **** *   Clears a pending interrupt in the interrupt controller.
 396:Generated_Source\PSoC5/isr_SPI.c **** *
 397:Generated_Source\PSoC5/isr_SPI.c **** *   Note Some interrupt sources are clear-on-read and require the block 
 398:Generated_Source\PSoC5/isr_SPI.c **** *   interrupt/status register to be read/cleared with the appropriate block API 
 399:Generated_Source\PSoC5/isr_SPI.c **** *   (GPIO, UART, and so on). Otherwise the ISR will continue to remain in 
 400:Generated_Source\PSoC5/isr_SPI.c **** *   pending state even though the interrupt itself is cleared using this API.
 401:Generated_Source\PSoC5/isr_SPI.c **** *
 402:Generated_Source\PSoC5/isr_SPI.c **** * Parameters:
 403:Generated_Source\PSoC5/isr_SPI.c **** *   None
 404:Generated_Source\PSoC5/isr_SPI.c **** *
 405:Generated_Source\PSoC5/isr_SPI.c **** * Return:
 406:Generated_Source\PSoC5/isr_SPI.c **** *   None
 407:Generated_Source\PSoC5/isr_SPI.c **** *
 408:Generated_Source\PSoC5/isr_SPI.c **** *******************************************************************************/
 409:Generated_Source\PSoC5/isr_SPI.c **** void isr_SPI_ClearPending(void)
 410:Generated_Source\PSoC5/isr_SPI.c **** {
 538              		.loc 1 410 0
 539              		.cfi_startproc
 540              		@ args = 0, pretend = 0, frame = 0
 541              		@ frame_needed = 1, uses_anonymous_args = 0
 542              		@ link register save eliminated.
 543 0000 80B4     		push	{r7}
 544              		.cfi_def_cfa_offset 4
 545              		.cfi_offset 7, -4
 546 0002 00AF     		add	r7, sp, #0
 547              		.cfi_def_cfa_register 7
 411:Generated_Source\PSoC5/isr_SPI.c ****     *isr_SPI_INTC_CLR_PD = isr_SPI__INTC_MASK;
 548              		.loc 1 411 0
 549 0004 034B     		ldr	r3, .L41
 550 0006 0222     		movs	r2, #2
 551 0008 1A60     		str	r2, [r3]
 412:Generated_Source\PSoC5/isr_SPI.c **** }
 552              		.loc 1 412 0
 553 000a 00BF     		nop
 554 000c BD46     		mov	sp, r7
 555              		.cfi_def_cfa_register 13
ARM GAS  C:\Users\z004c8dn\AppData\Local\Temp\ccZvNTSg.s 			page 18


 556              		@ sp needed
 557 000e 80BC     		pop	{r7}
 558              		.cfi_restore 7
 559              		.cfi_def_cfa_offset 0
 560 0010 7047     		bx	lr
 561              	.L42:
 562 0012 00BF     		.align	2
 563              	.L41:
 564 0014 80E200E0 		.word	-536812928
 565              		.cfi_endproc
 566              	.LFE75:
 567              		.size	isr_SPI_ClearPending, .-isr_SPI_ClearPending
 568              		.text
 569              	.Letext0:
 570              		.file 2 "c:\\program files (x86)\\cypress\\psoc creator\\4.4\\psoc creator\\import\\gnu\\arm\\5.4.
 571              		.file 3 "c:\\program files (x86)\\cypress\\psoc creator\\4.4\\psoc creator\\import\\gnu\\arm\\5.4.
 572              		.file 4 "Generated_Source\\PSoC5/cytypes.h"
 573              		.file 5 "Generated_Source\\PSoC5/core_cm3.h"